

Microchip MPLAB XC8 Assembler V2.45 build 20230818022343 
                                                                                               Tue Dec 26 19:50:52 2023

Microchip MPLAB XC8 C Compiler v2.45 (Free license) build 20230818022343 Og1 
     1                           	processor	16LF1826
     2                           	pagewidth 120
     3                           	opt	flic
     4                           	psect	idataBANK0,global,class=CODE,delta=2,noexec
     5                           	psect	nvBANK0,global,class=BANK0,space=1,delta=1,noexec
     6                           	psect	cinit,global,class=CODE,merge=1,delta=2
     7                           	psect	bssCOMMON,global,class=COMMON,space=1,delta=1,noexec
     8                           	psect	bssBANK0,global,class=BANK0,space=1,delta=1,noexec
     9                           	psect	dataBANK0,global,class=BANK0,space=1,delta=1,noexec
    10                           	psect	inittext,global,class=CODE,delta=2
    11                           	psect	cstackCOMMON,global,class=COMMON,space=1,delta=1,noexec
    12                           	psect	maintext,global,class=CODE,merge=1,split=1,delta=2
    13                           	psect	text1,local,class=CODE,merge=1,delta=2
    14                           	psect	text2,local,class=CODE,merge=1,delta=2
    15                           	psect	text3,local,class=CODE,merge=1,delta=2
    16                           	psect	text4,local,class=CODE,merge=1,delta=2
    17                           	psect	text5,local,class=CODE,merge=1,delta=2
    18                           	psect	text6,local,class=CODE,merge=1,delta=2
    19                           	psect	text7,local,class=CODE,merge=1,delta=2,group=1
    20                           	psect	text8,local,class=CODE,merge=1,delta=2,group=1
    21                           	psect	text9,local,class=CODE,merge=1,delta=2
    22                           	psect	config,global,abs,ovrld,class=CONFIG,space=4,delta=2,noexec
    23                           	dabs	1,0x7E,2
    24     0000                     
    25                           ; Generated 06/07/2023 GMT
    26                           ; 
    27                           ; Copyright © 2023, Microchip Technology Inc. and its subsidiaries ("Microchip")
    28                           ; All rights reserved.
    29                           ; 
    30                           ; This software is developed by Microchip Technology Inc. and its subsidiaries ("Microch
      +                          ip").
    31                           ; 
    32                           ; Redistribution and use in source and binary forms, with or without modification, are
    33                           ; permitted provided that the following conditions are met:
    34                           ; 
    35                           ;     1. Redistributions of source code must retain the above copyright notice, this lis
      +                          t of
    36                           ;        conditions and the following disclaimer.
    37                           ; 
    38                           ;     2. Redistributions in binary form must reproduce the above copyright notice, this 
      +                          list
    39                           ;        of conditions and the following disclaimer in the documentation and/or other
    40                           ;        materials provided with the distribution. Publication is not required when
    41                           ;        this file is used in an embedded application.
    42                           ; 
    43                           ;     3. Microchip's name may not be used to endorse or promote products derived from th
      +                          is
    44                           ;        software without specific prior written permission.
    45                           ; 
    46                           ; THIS SOFTWARE IS PROVIDED BY MICROCHIP "AS IS" AND ANY EXPRESS OR IMPLIED WARRANTIES,
    47                           ; INCLUDING, BUT NOT LIMITED TO, THE IMPLIED WARRANTIES OF MERCHANTABILITY AND FITNESS F
      +                          OR
    48                           ; PURPOSE ARE DISCLAIMED.  IN NO EVENT SHALL MICROCHIP BE LIABLE FOR ANY DIRECT, INDIREC
      +                          T,
    49                           ; INCIDENTAL, SPECIAL, EXEMPLARY, OR CONSEQUENTIAL DAMAGES (INCLUDING BUT NOT LIMITED TO
    50                           ; PROCUREMENT OF SUBSTITUTE GOODS OR SERVICES; LOSS OF USE, DATA OR PROFITS; OR BUSINESS
    51                           ; INTERRUPTION) HOWSOEVER CAUSED AND ON ANY THEORY OF LIABILITY, WHETHER IN CONTRACT, ST
      +                          RICT
    52                           ; LIABILITY, OR TORT (INCLUDING NEGLIGENCE OR OTHERWISE) ARISING IN ANY WAY OUT OF THE U
      +                          SE OF
    53                           ; THIS SOFTWARE, EVEN IF ADVISED OF THE POSSIBILITY OF SUCH DAMAGE.
    54                           ; 
    55                           ; 
    56                           ; Code-generator required, PIC16LF1826 Definitions
    57                           ; 
    58                           ; SFR Addresses
    59     0000                     	;# 
    60     0001                     	;# 
    61     0002                     	;# 
    62     0003                     	;# 
    63     0004                     	;# 
    64     0005                     	;# 
    65     0006                     	;# 
    66     0007                     	;# 
    67     0008                     	;# 
    68     0009                     	;# 
    69     000A                     	;# 
    70     000B                     	;# 
    71     000C                     	;# 
    72     000D                     	;# 
    73     0011                     	;# 
    74     0012                     	;# 
    75     0015                     	;# 
    76     0016                     	;# 
    77     0016                     	;# 
    78     0017                     	;# 
    79     0018                     	;# 
    80     0019                     	;# 
    81     001A                     	;# 
    82     001B                     	;# 
    83     001C                     	;# 
    84     001E                     	;# 
    85     001F                     	;# 
    86     008C                     	;# 
    87     008D                     	;# 
    88     0091                     	;# 
    89     0092                     	;# 
    90     0095                     	;# 
    91     0096                     	;# 
    92     0097                     	;# 
    93     0098                     	;# 
    94     0099                     	;# 
    95     009A                     	;# 
    96     009B                     	;# 
    97     009B                     	;# 
    98     009C                     	;# 
    99     009D                     	;# 
   100     009E                     	;# 
   101     010C                     	;# 
   102     010D                     	;# 
   103     0111                     	;# 
   104     0112                     	;# 
   105     0113                     	;# 
   106     0114                     	;# 
   107     0115                     	;# 
   108     0116                     	;# 
   109     0117                     	;# 
   110     0118                     	;# 
   111     0119                     	;# 
   112     011A                     	;# 
   113     011B                     	;# 
   114     011D                     	;# 
   115     011E                     	;# 
   116     018C                     	;# 
   117     018D                     	;# 
   118     0191                     	;# 
   119     0191                     	;# 
   120     0192                     	;# 
   121     0193                     	;# 
   122     0193                     	;# 
   123     0193                     	;# 
   124     0194                     	;# 
   125     0195                     	;# 
   126     0196                     	;# 
   127     0199                     	;# 
   128     019A                     	;# 
   129     019B                     	;# 
   130     019B                     	;# 
   131     019B                     	;# 
   132     019B                     	;# 
   133     019C                     	;# 
   134     019C                     	;# 
   135     019D                     	;# 
   136     019E                     	;# 
   137     019F                     	;# 
   138     020C                     	;# 
   139     020D                     	;# 
   140     0211                     	;# 
   141     0211                     	;# 
   142     0212                     	;# 
   143     0212                     	;# 
   144     0213                     	;# 
   145     0213                     	;# 
   146     0214                     	;# 
   147     0214                     	;# 
   148     0215                     	;# 
   149     0215                     	;# 
   150     0215                     	;# 
   151     0216                     	;# 
   152     0216                     	;# 
   153     0217                     	;# 
   154     0217                     	;# 
   155     0291                     	;# 
   156     0291                     	;# 
   157     0292                     	;# 
   158     0293                     	;# 
   159     0294                     	;# 
   160     0295                     	;# 
   161     0295                     	;# 
   162     0296                     	;# 
   163     0394                     	;# 
   164     0395                     	;# 
   165     0396                     	;# 
   166     039A                     	;# 
   167     039C                     	;# 
   168     039D                     	;# 
   169     039E                     	;# 
   170     039F                     	;# 
   171     0FE4                     	;# 
   172     0FE5                     	;# 
   173     0FE6                     	;# 
   174     0FE7                     	;# 
   175     0FE8                     	;# 
   176     0FE9                     	;# 
   177     0FEA                     	;# 
   178     0FEB                     	;# 
   179     0FED                     	;# 
   180     0FEE                     	;# 
   181     0FEF                     	;# 
   182     0000                     	;# 
   183     0001                     	;# 
   184     0002                     	;# 
   185     0003                     	;# 
   186     0004                     	;# 
   187     0005                     	;# 
   188     0006                     	;# 
   189     0007                     	;# 
   190     0008                     	;# 
   191     0009                     	;# 
   192     000A                     	;# 
   193     000B                     	;# 
   194     000C                     	;# 
   195     000D                     	;# 
   196     0011                     	;# 
   197     0012                     	;# 
   198     0015                     	;# 
   199     0016                     	;# 
   200     0016                     	;# 
   201     0017                     	;# 
   202     0018                     	;# 
   203     0019                     	;# 
   204     001A                     	;# 
   205     001B                     	;# 
   206     001C                     	;# 
   207     001E                     	;# 
   208     001F                     	;# 
   209     008C                     	;# 
   210     008D                     	;# 
   211     0091                     	;# 
   212     0092                     	;# 
   213     0095                     	;# 
   214     0096                     	;# 
   215     0097                     	;# 
   216     0098                     	;# 
   217     0099                     	;# 
   218     009A                     	;# 
   219     009B                     	;# 
   220     009B                     	;# 
   221     009C                     	;# 
   222     009D                     	;# 
   223     009E                     	;# 
   224     010C                     	;# 
   225     010D                     	;# 
   226     0111                     	;# 
   227     0112                     	;# 
   228     0113                     	;# 
   229     0114                     	;# 
   230     0115                     	;# 
   231     0116                     	;# 
   232     0117                     	;# 
   233     0118                     	;# 
   234     0119                     	;# 
   235     011A                     	;# 
   236     011B                     	;# 
   237     011D                     	;# 
   238     011E                     	;# 
   239     018C                     	;# 
   240     018D                     	;# 
   241     0191                     	;# 
   242     0191                     	;# 
   243     0192                     	;# 
   244     0193                     	;# 
   245     0193                     	;# 
   246     0193                     	;# 
   247     0194                     	;# 
   248     0195                     	;# 
   249     0196                     	;# 
   250     0199                     	;# 
   251     019A                     	;# 
   252     019B                     	;# 
   253     019B                     	;# 
   254     019B                     	;# 
   255     019B                     	;# 
   256     019C                     	;# 
   257     019C                     	;# 
   258     019D                     	;# 
   259     019E                     	;# 
   260     019F                     	;# 
   261     020C                     	;# 
   262     020D                     	;# 
   263     0211                     	;# 
   264     0211                     	;# 
   265     0212                     	;# 
   266     0212                     	;# 
   267     0213                     	;# 
   268     0213                     	;# 
   269     0214                     	;# 
   270     0214                     	;# 
   271     0215                     	;# 
   272     0215                     	;# 
   273     0215                     	;# 
   274     0216                     	;# 
   275     0216                     	;# 
   276     0217                     	;# 
   277     0217                     	;# 
   278     0291                     	;# 
   279     0291                     	;# 
   280     0292                     	;# 
   281     0293                     	;# 
   282     0294                     	;# 
   283     0295                     	;# 
   284     0295                     	;# 
   285     0296                     	;# 
   286     0394                     	;# 
   287     0395                     	;# 
   288     0396                     	;# 
   289     039A                     	;# 
   290     039C                     	;# 
   291     039D                     	;# 
   292     039E                     	;# 
   293     039F                     	;# 
   294     0FE4                     	;# 
   295     0FE5                     	;# 
   296     0FE6                     	;# 
   297     0FE7                     	;# 
   298     0FE8                     	;# 
   299     0FE9                     	;# 
   300     0FEA                     	;# 
   301     0FEB                     	;# 
   302     0FED                     	;# 
   303     0FEE                     	;# 
   304     0FEF                     	;# 
   305     0000                     	;# 
   306     0001                     	;# 
   307     0002                     	;# 
   308     0003                     	;# 
   309     0004                     	;# 
   310     0005                     	;# 
   311     0006                     	;# 
   312     0007                     	;# 
   313     0008                     	;# 
   314     0009                     	;# 
   315     000A                     	;# 
   316     000B                     	;# 
   317     000C                     	;# 
   318     000D                     	;# 
   319     0011                     	;# 
   320     0012                     	;# 
   321     0015                     	;# 
   322     0016                     	;# 
   323     0016                     	;# 
   324     0017                     	;# 
   325     0018                     	;# 
   326     0019                     	;# 
   327     001A                     	;# 
   328     001B                     	;# 
   329     001C                     	;# 
   330     001E                     	;# 
   331     001F                     	;# 
   332     008C                     	;# 
   333     008D                     	;# 
   334     0091                     	;# 
   335     0092                     	;# 
   336     0095                     	;# 
   337     0096                     	;# 
   338     0097                     	;# 
   339     0098                     	;# 
   340     0099                     	;# 
   341     009A                     	;# 
   342     009B                     	;# 
   343     009B                     	;# 
   344     009C                     	;# 
   345     009D                     	;# 
   346     009E                     	;# 
   347     010C                     	;# 
   348     010D                     	;# 
   349     0111                     	;# 
   350     0112                     	;# 
   351     0113                     	;# 
   352     0114                     	;# 
   353     0115                     	;# 
   354     0116                     	;# 
   355     0117                     	;# 
   356     0118                     	;# 
   357     0119                     	;# 
   358     011A                     	;# 
   359     011B                     	;# 
   360     011D                     	;# 
   361     011E                     	;# 
   362     018C                     	;# 
   363     018D                     	;# 
   364     0191                     	;# 
   365     0191                     	;# 
   366     0192                     	;# 
   367     0193                     	;# 
   368     0193                     	;# 
   369     0193                     	;# 
   370     0194                     	;# 
   371     0195                     	;# 
   372     0196                     	;# 
   373     0199                     	;# 
   374     019A                     	;# 
   375     019B                     	;# 
   376     019B                     	;# 
   377     019B                     	;# 
   378     019B                     	;# 
   379     019C                     	;# 
   380     019C                     	;# 
   381     019D                     	;# 
   382     019E                     	;# 
   383     019F                     	;# 
   384     020C                     	;# 
   385     020D                     	;# 
   386     0211                     	;# 
   387     0211                     	;# 
   388     0212                     	;# 
   389     0212                     	;# 
   390     0213                     	;# 
   391     0213                     	;# 
   392     0214                     	;# 
   393     0214                     	;# 
   394     0215                     	;# 
   395     0215                     	;# 
   396     0215                     	;# 
   397     0216                     	;# 
   398     0216                     	;# 
   399     0217                     	;# 
   400     0217                     	;# 
   401     0291                     	;# 
   402     0291                     	;# 
   403     0292                     	;# 
   404     0293                     	;# 
   405     0294                     	;# 
   406     0295                     	;# 
   407     0295                     	;# 
   408     0296                     	;# 
   409     0394                     	;# 
   410     0395                     	;# 
   411     0396                     	;# 
   412     039A                     	;# 
   413     039C                     	;# 
   414     039D                     	;# 
   415     039E                     	;# 
   416     039F                     	;# 
   417     0FE4                     	;# 
   418     0FE5                     	;# 
   419     0FE6                     	;# 
   420     0FE7                     	;# 
   421     0FE8                     	;# 
   422     0FE9                     	;# 
   423     0FEA                     	;# 
   424     0FEB                     	;# 
   425     0FED                     	;# 
   426     0FEE                     	;# 
   427     0FEF                     	;# 
   428     0000                     	;# 
   429     0001                     	;# 
   430     0002                     	;# 
   431     0003                     	;# 
   432     0004                     	;# 
   433     0005                     	;# 
   434     0006                     	;# 
   435     0007                     	;# 
   436     0008                     	;# 
   437     0009                     	;# 
   438     000A                     	;# 
   439     000B                     	;# 
   440     000C                     	;# 
   441     000D                     	;# 
   442     0011                     	;# 
   443     0012                     	;# 
   444     0015                     	;# 
   445     0016                     	;# 
   446     0016                     	;# 
   447     0017                     	;# 
   448     0018                     	;# 
   449     0019                     	;# 
   450     001A                     	;# 
   451     001B                     	;# 
   452     001C                     	;# 
   453     001E                     	;# 
   454     001F                     	;# 
   455     008C                     	;# 
   456     008D                     	;# 
   457     0091                     	;# 
   458     0092                     	;# 
   459     0095                     	;# 
   460     0096                     	;# 
   461     0097                     	;# 
   462     0098                     	;# 
   463     0099                     	;# 
   464     009A                     	;# 
   465     009B                     	;# 
   466     009B                     	;# 
   467     009C                     	;# 
   468     009D                     	;# 
   469     009E                     	;# 
   470     010C                     	;# 
   471     010D                     	;# 
   472     0111                     	;# 
   473     0112                     	;# 
   474     0113                     	;# 
   475     0114                     	;# 
   476     0115                     	;# 
   477     0116                     	;# 
   478     0117                     	;# 
   479     0118                     	;# 
   480     0119                     	;# 
   481     011A                     	;# 
   482     011B                     	;# 
   483     011D                     	;# 
   484     011E                     	;# 
   485     018C                     	;# 
   486     018D                     	;# 
   487     0191                     	;# 
   488     0191                     	;# 
   489     0192                     	;# 
   490     0193                     	;# 
   491     0193                     	;# 
   492     0193                     	;# 
   493     0194                     	;# 
   494     0195                     	;# 
   495     0196                     	;# 
   496     0199                     	;# 
   497     019A                     	;# 
   498     019B                     	;# 
   499     019B                     	;# 
   500     019B                     	;# 
   501     019B                     	;# 
   502     019C                     	;# 
   503     019C                     	;# 
   504     019D                     	;# 
   505     019E                     	;# 
   506     019F                     	;# 
   507     020C                     	;# 
   508     020D                     	;# 
   509     0211                     	;# 
   510     0211                     	;# 
   511     0212                     	;# 
   512     0212                     	;# 
   513     0213                     	;# 
   514     0213                     	;# 
   515     0214                     	;# 
   516     0214                     	;# 
   517     0215                     	;# 
   518     0215                     	;# 
   519     0215                     	;# 
   520     0216                     	;# 
   521     0216                     	;# 
   522     0217                     	;# 
   523     0217                     	;# 
   524     0291                     	;# 
   525     0291                     	;# 
   526     0292                     	;# 
   527     0293                     	;# 
   528     0294                     	;# 
   529     0295                     	;# 
   530     0295                     	;# 
   531     0296                     	;# 
   532     0394                     	;# 
   533     0395                     	;# 
   534     0396                     	;# 
   535     039A                     	;# 
   536     039C                     	;# 
   537     039D                     	;# 
   538     039E                     	;# 
   539     039F                     	;# 
   540     0FE4                     	;# 
   541     0FE5                     	;# 
   542     0FE6                     	;# 
   543     0FE7                     	;# 
   544     0FE8                     	;# 
   545     0FE9                     	;# 
   546     0FEA                     	;# 
   547     0FEB                     	;# 
   548     0FED                     	;# 
   549     0FEE                     	;# 
   550     0FEF                     	;# 
   551                           
   552                           	psect	idataBANK0
   553     012D                     __pidataBANK0:
   554                           
   555                           ;initializer for _NumberBlocks
   556     012D  341E               	retlw	30
   557     012E  3421               	retlw	33
   558     012F  3404               	retlw	4
   559     0130  340C               	retlw	12
   560     0131  3414               	retlw	20
   561     0132  343F               	retlw	63
   562     0133  3402               	retlw	2
   563     0134  3420               	retlw	32
   564     0135  340E               	retlw	14
   565     0136  3401               	retlw	1
   566     0137  3406               	retlw	6
   567     0138  340A               	retlw	10
   568     0139  3412               	retlw	18
   569     013A  3422               	retlw	34
   570     013B  343E               	retlw	62
   571     013C  342E               	retlw	46
   572     013D  3430               	retlw	48
   573     013E  3408               	retlw	8
   574     013F  3410               	retlw	16
   575     0140  3423               	retlw	35
   576     0141  341D               	retlw	29
   577                           
   578                           	psect	nvBANK0
   579     0035                     __pnvBANK0:
   580     0035                     _character_line:
   581     0035                     	ds	1
   582     0036                     _char_line:
   583     0036                     	ds	1
   584     0037                     _display_num:
   585     0037                     	ds	1
   586     0097                     _WDTCON	set	151
   587     0098                     _OSCTUNE	set	152
   588     0099                     _OSCCON	set	153
   589     0095                     _OPTION_REGbits	set	149
   590     008D                     _TRISB	set	141
   591     008C                     _TRISA	set	140
   592     0116                     _BORCON	set	278
   593     011E                     _APFCON1	set	286
   594     011D                     _APFCON0	set	285
   595     010D                     _LATB	set	269
   596     010C                     _LATA	set	268
   597     018C                     _ANSELA	set	396
   598     018D                     _ANSELB	set	397
   599     020C                     _WPUA	set	524
   600     020D                     _WPUB	set	525
   601                           
   602                           	psect	cinit
   603     07EF                     start_initialization:	
   604                           ; #config settings
   605                           
   606     07EF                     __initialization:
   607                           
   608                           ; Initialize objects allocated to BANK0
   609     07EF  302D               	movlw	low __pidataBANK0
   610     07F0  0084               	movwf	4
   611     07F1  3081               	movlw	(high __pidataBANK0)| (0+128)
   612     07F2  0085               	movwf	5
   613     07F3  3020               	movlw	low __pdataBANK0
   614     07F4  0086               	movwf	6
   615     07F5  3000               	movlw	high __pdataBANK0
   616     07F6  0087               	movwf	7
   617     07F7  3015               	movlw	21
   618     07F8  3181  2101  3187   	fcall	init_ram
   619                           
   620                           ; Clear objects allocated to COMMON
   621     07FB  01FD               	clrf	__pbssCOMMON& (0+127)
   622                           
   623                           ; Clear objects allocated to BANK0
   624     07FC  01B8               	clrf	__pbssBANK0& (0+127)
   625     07FD  01B9               	clrf	(__pbssBANK0+1)& (0+127)
   626     07FE                     end_of_initialization:	
   627                           ;End of C runtime variable initialization code
   628                           
   629     07FE                     __end_of__initialization:
   630     07FE  0020               	movlb	0
   631     07FF  2958               	ljmp	_main	;jump to C main() function
   632                           
   633                           	psect	bssCOMMON
   634     007D                     __pbssCOMMON:
   635     007D                     Hour_deconstruct@Output:
   636     007D                     	ds	1
   637                           
   638                           	psect	bssBANK0
   639     0038                     __pbssBANK0:
   640     0038                     LHalf_NumBuilder@Output:
   641     0038                     	ds	1
   642     0039                     Character_Line@character_line:
   643     0039                     	ds	1
   644                           
   645                           	psect	dataBANK0
   646     0020                     __pdataBANK0:
   647     0020                     _NumberBlocks:
   648     0020                     	ds	21
   649                           
   650                           	psect	inittext
   651     0101                     init_ram:
   652     0101  00FE               	movwf	btemp
   653     0102                     initloop:
   654     0102  0012               	moviw fsr0++
   655     0103  001E               	movwi fsr1++
   656     0104  0BFE               	decfsz	btemp,f
   657     0105  2902               	goto	initloop
   658     0106  3400               	retlw	0
   659                           
   660                           	psect	cstackCOMMON
   661     0070                     __pcstackCOMMON:
   662     0070                     ?_OSCILLATOR_Initialize:
   663     0070                     ??_OSCILLATOR_Initialize:	
   664                           ; 1 bytes @ 0x0
   665                           
   666     0070                     ?_WDT_Initialize:	
   667                           ; 1 bytes @ 0x0
   668                           
   669     0070                     ??_WDT_Initialize:	
   670                           ; 1 bytes @ 0x0
   671                           
   672     0070                     ?_PIN_MANAGER_Initialize:	
   673                           ; 1 bytes @ 0x0
   674                           
   675     0070                     ??_PIN_MANAGER_Initialize:	
   676                           ; 1 bytes @ 0x0
   677                           
   678     0070                     ?_SYSTEM_Initialize:	
   679                           ; 1 bytes @ 0x0
   680                           
   681     0070                     ??_SYSTEM_Initialize:	
   682                           ; 1 bytes @ 0x0
   683                           
   684     0070                     ?_Character_Line:	
   685                           ; 1 bytes @ 0x0
   686                           
   687     0070                     ??_Character_Line:	
   688                           ; 1 bytes @ 0x0
   689                           
   690     0070                     ?_LHalf_NumBuilder:	
   691                           ; 1 bytes @ 0x0
   692                           
   693     0070                     ?_main:	
   694                           ; 1 bytes @ 0x0
   695                           
   696     0070                     ?___awdiv:	
   697                           ; 1 bytes @ 0x0
   698                           
   699     0070                     ?___awmod:	
   700                           ; 2 bytes @ 0x0
   701                           
   702     0070                     LHalf_NumBuilder@Block:	
   703                           ; 2 bytes @ 0x0
   704                           
   705     0070                     ___awdiv@divisor:	
   706                           ; 1 bytes @ 0x0
   707                           
   708     0070                     ___awmod@divisor:	
   709                           ; 2 bytes @ 0x0
   710                           
   711                           
   712                           ; 2 bytes @ 0x0
   713     0070                     	ds	1
   714     0071                     Character_Line@access_line:
   715     0071                     LHalf_NumBuilder@hours:	
   716                           ; 1 bytes @ 0x1
   717                           
   718                           
   719                           ; 1 bytes @ 0x1
   720     0071                     	ds	1
   721     0072                     ??_LHalf_NumBuilder:
   722     0072                     ___awdiv@dividend:	
   723                           ; 1 bytes @ 0x2
   724                           
   725     0072                     ___awmod@dividend:	
   726                           ; 2 bytes @ 0x2
   727                           
   728                           
   729                           ; 2 bytes @ 0x2
   730     0072                     	ds	2
   731     0074                     ??___awdiv:
   732     0074                     ??___awmod:	
   733                           ; 1 bytes @ 0x4
   734                           
   735     0074                     LHalf_NumBuilder@character_line:	
   736                           ; 1 bytes @ 0x4
   737                           
   738                           
   739                           ; 1 bytes @ 0x4
   740     0074                     	ds	1
   741     0075                     ___awdiv@counter:
   742     0075                     ___awmod@counter:	
   743                           ; 1 bytes @ 0x5
   744                           
   745                           
   746                           ; 1 bytes @ 0x5
   747     0075                     	ds	1
   748     0076                     ___awdiv@sign:
   749     0076                     ___awmod@sign:	
   750                           ; 1 bytes @ 0x6
   751                           
   752                           
   753                           ; 1 bytes @ 0x6
   754     0076                     	ds	1
   755     0077                     ___awdiv@quotient:
   756                           
   757                           ; 2 bytes @ 0x7
   758     0077                     	ds	2
   759     0079                     ?_Hour_deconstruct:
   760     0079                     Hour_deconstruct@hours:	
   761                           ; 1 bytes @ 0x9
   762                           
   763                           
   764                           ; 1 bytes @ 0x9
   765     0079                     	ds	1
   766     007A                     ??_Hour_deconstruct:
   767                           
   768                           ; 1 bytes @ 0xA
   769     007A                     	ds	2
   770     007C                     Hour_deconstruct@access_line:
   771                           
   772                           ; 1 bytes @ 0xC
   773     007C                     	ds	1
   774     007D                     ??_main:
   775                           
   776                           	psect	maintext
   777     0158                     __pmaintext:	
   778                           ; 1 bytes @ 0xD
   779 ;;
   780 ;;Main: autosize = 0, tempsize = 0, incstack = 0, save=0
   781 ;;
   782 ;; *************** function _main *****************
   783 ;; Defined at:
   784 ;;		line 58 in file "PerfBoardClock.c"
   785 ;; Parameters:    Size  Location     Type
   786 ;;		None
   787 ;; Auto vars:     Size  Location     Type
   788 ;;  AccessLine      1    0        unsigned char 
   789 ;;  Hours           1    0        unsigned char 
   790 ;; Return value:  Size  Location     Type
   791 ;;                  1    wreg      void 
   792 ;; Registers used:
   793 ;;		wreg, fsr1l, fsr1h, status,2, status,0, pclath, cstack
   794 ;; Tracked objects:
   795 ;;		On entry : B1F/0
   796 ;;		On exit  : 0/0
   797 ;;		Unchanged: 0/0
   798 ;; Data sizes:     COMMON   BANK0   BANK1   BANK2
   799 ;;      Params:         0       0       0       0
   800 ;;      Locals:         0       0       0       0
   801 ;;      Temps:          0       0       0       0
   802 ;;      Totals:         0       0       0       0
   803 ;;Total ram usage:        0 bytes
   804 ;; Hardware stack levels required when called: 2
   805 ;; This function calls:
   806 ;;		_Character_Line
   807 ;;		_Hour_deconstruct
   808 ;;		_LHalf_NumBuilder
   809 ;;		_SYSTEM_Initialize
   810 ;; This function is called by:
   811 ;;		Startup code after reset
   812 ;; This function uses a non-reentrant model
   813 ;;
   814                           
   815     0158                     _main:	
   816                           ;psect for function _main
   817                           
   818     0158                     l1457:	
   819                           ;incstack = 0
   820                           ; Regs used in _main: [wreg+fsr1l+fsr1h+status,2+status,0+pclath+cstack]
   821                           
   822                           
   823                           ;PerfBoardClock.c: 60:     SYSTEM_Initialize();
   824     0158  3181  210E  3181   	fcall	_SYSTEM_Initialize
   825     015B                     l1459:
   826     015B                     l1461:
   827                           
   828                           ;PerfBoardClock.c: 82:     display_num = Hour_deconstruct(AccessLine, Hours);
   829     015B  300D               	movlw	13
   830     015C  00F9               	movwf	Hour_deconstruct@hours
   831     015D  3009               	movlw	9
   832     015E  3181  2175  3181   	fcall	_Hour_deconstruct
   833     0161  0020               	movlb	0	; select bank0
   834     0162  00B7               	movwf	_display_num
   835                           
   836                           ;PerfBoardClock.c: 83:     char_line = Character_Line(AccessLine);
   837     0163  3009               	movlw	9
   838     0164  3181  2118  3181   	fcall	_Character_Line
   839     0167  0020               	movlb	0	; select bank0
   840     0168  00B6               	movwf	_char_line
   841     0169                     l1463:
   842                           
   843                           ;PerfBoardClock.c: 85:     character_line = LHalf_NumBuilder(char_line, &NumberBlocks, d
      +                          isplay_num);
   844     0169  3020               	movlw	(low (_NumberBlocks| 0))& (0+255)
   845     016A  00F0               	movwf	LHalf_NumBuilder@Block
   846     016B  0837               	movf	_display_num,w
   847     016C  00F1               	movwf	LHalf_NumBuilder@hours
   848     016D  0836               	movf	_char_line,w
   849     016E  3182  2251  3181   	fcall	_LHalf_NumBuilder
   850     0171  0020               	movlb	0	; select bank0
   851     0172  00B5               	movwf	_character_line
   852     0173                     l106:	
   853                           ;PerfBoardClock.c: 87:     while (1) {
   854                           
   855     0173                     l107:	
   856                           ;PerfBoardClock.c: 89:     }
   857                           
   858     0173  2973               	goto	l106
   859     0174  2801               	ljmp	start
   860     0175                     __end_of_main:
   861                           
   862                           	psect	text1
   863     010E                     __ptext1:	
   864 ;; *************** function _SYSTEM_Initialize *****************
   865 ;; Defined at:
   866 ;;		line 50 in file "mcc_generated_files/mcc.c"
   867 ;; Parameters:    Size  Location     Type
   868 ;;		None
   869 ;; Auto vars:     Size  Location     Type
   870 ;;		None
   871 ;; Return value:  Size  Location     Type
   872 ;;                  1    wreg      void 
   873 ;; Registers used:
   874 ;;		wreg, status,2, status,0, pclath, cstack
   875 ;; Tracked objects:
   876 ;;		On entry : 0/0
   877 ;;		On exit  : 0/0
   878 ;;		Unchanged: 0/0
   879 ;; Data sizes:     COMMON   BANK0   BANK1   BANK2
   880 ;;      Params:         0       0       0       0
   881 ;;      Locals:         0       0       0       0
   882 ;;      Temps:          0       0       0       0
   883 ;;      Totals:         0       0       0       0
   884 ;;Total ram usage:        0 bytes
   885 ;; Hardware stack levels used: 1
   886 ;; Hardware stack levels required when called: 1
   887 ;; This function calls:
   888 ;;		_OSCILLATOR_Initialize
   889 ;;		_PIN_MANAGER_Initialize
   890 ;;		_WDT_Initialize
   891 ;; This function is called by:
   892 ;;		_main
   893 ;; This function uses a non-reentrant model
   894 ;;
   895                           
   896     010E                     _SYSTEM_Initialize:	
   897                           ;psect for function _SYSTEM_Initialize
   898                           
   899     010E                     l1193:	
   900                           ;incstack = 0
   901                           ; Regs used in _SYSTEM_Initialize: [wreg+status,2+status,0+pclath+cstack]
   902                           
   903                           
   904                           ;mcc_generated_files/mcc.c: 53:     PIN_MANAGER_Initialize();
   905     010E  3181  2142  3181   	fcall	_PIN_MANAGER_Initialize
   906                           
   907                           ;mcc_generated_files/mcc.c: 54:     OSCILLATOR_Initialize();
   908     0111  3181  2107  3181   	fcall	_OSCILLATOR_Initialize
   909                           
   910                           ;mcc_generated_files/mcc.c: 55:     WDT_Initialize();
   911     0114  3180  20FD  3181   	fcall	_WDT_Initialize
   912     0117                     l45:
   913     0117  0008               	return
   914     0118                     __end_of_SYSTEM_Initialize:
   915                           
   916                           	psect	text2
   917     00FD                     __ptext2:	
   918 ;; *************** function _WDT_Initialize *****************
   919 ;; Defined at:
   920 ;;		line 68 in file "mcc_generated_files/mcc.c"
   921 ;; Parameters:    Size  Location     Type
   922 ;;		None
   923 ;; Auto vars:     Size  Location     Type
   924 ;;		None
   925 ;; Return value:  Size  Location     Type
   926 ;;                  1    wreg      void 
   927 ;; Registers used:
   928 ;;		wreg
   929 ;; Tracked objects:
   930 ;;		On entry : 0/0
   931 ;;		On exit  : 0/0
   932 ;;		Unchanged: 0/0
   933 ;; Data sizes:     COMMON   BANK0   BANK1   BANK2
   934 ;;      Params:         0       0       0       0
   935 ;;      Locals:         0       0       0       0
   936 ;;      Temps:          0       0       0       0
   937 ;;      Totals:         0       0       0       0
   938 ;;Total ram usage:        0 bytes
   939 ;; Hardware stack levels used: 1
   940 ;; This function calls:
   941 ;;		Nothing
   942 ;; This function is called by:
   943 ;;		_SYSTEM_Initialize
   944 ;; This function uses a non-reentrant model
   945 ;;
   946                           
   947     00FD                     _WDT_Initialize:	
   948                           ;psect for function _WDT_Initialize
   949                           
   950     00FD                     l1109:	
   951                           ;incstack = 0
   952                           ; Regs used in _WDT_Initialize: [wreg]
   953                           
   954                           
   955                           ;mcc_generated_files/mcc.c: 71:     WDTCON = 0x16;
   956     00FD  3016               	movlw	22
   957     00FE  0021               	movlb	1	; select bank1
   958     00FF  0097               	movwf	23	;volatile
   959     0100                     l51:
   960     0100  0008               	return
   961     0101                     __end_of_WDT_Initialize:
   962                           
   963                           	psect	text3
   964     0142                     __ptext3:	
   965 ;; *************** function _PIN_MANAGER_Initialize *****************
   966 ;; Defined at:
   967 ;;		line 55 in file "mcc_generated_files/pin_manager.c"
   968 ;; Parameters:    Size  Location     Type
   969 ;;		None
   970 ;; Auto vars:     Size  Location     Type
   971 ;;		None
   972 ;; Return value:  Size  Location     Type
   973 ;;                  1    wreg      void 
   974 ;; Registers used:
   975 ;;		wreg, status,2
   976 ;; Tracked objects:
   977 ;;		On entry : 0/0
   978 ;;		On exit  : 0/0
   979 ;;		Unchanged: 0/0
   980 ;; Data sizes:     COMMON   BANK0   BANK1   BANK2
   981 ;;      Params:         0       0       0       0
   982 ;;      Locals:         0       0       0       0
   983 ;;      Temps:          0       0       0       0
   984 ;;      Totals:         0       0       0       0
   985 ;;Total ram usage:        0 bytes
   986 ;; Hardware stack levels used: 1
   987 ;; This function calls:
   988 ;;		Nothing
   989 ;; This function is called by:
   990 ;;		_SYSTEM_Initialize
   991 ;; This function uses a non-reentrant model
   992 ;;
   993                           
   994     0142                     _PIN_MANAGER_Initialize:	
   995                           ;psect for function _PIN_MANAGER_Initialize
   996                           
   997     0142                     l1091:	
   998                           ;incstack = 0
   999                           ; Regs used in _PIN_MANAGER_Initialize: [wreg+status,2]
  1000                           
  1001                           
  1002                           ;mcc_generated_files/pin_manager.c: 60:     LATA = 0x15;
  1003     0142  3015               	movlw	21
  1004     0143  0022               	movlb	2	; select bank2
  1005     0144  008C               	movwf	12	;volatile
  1006     0145                     l1093:
  1007                           
  1008                           ;mcc_generated_files/pin_manager.c: 61:     LATB = 0x00;
  1009     0145  018D               	clrf	13	;volatile
  1010     0146                     l1095:
  1011                           
  1012                           ;mcc_generated_files/pin_manager.c: 66:     TRISA = 0xE0;
  1013     0146  30E0               	movlw	224
  1014     0147  0021               	movlb	1	; select bank1
  1015     0148  008C               	movwf	12	;volatile
  1016     0149                     l1097:
  1017                           
  1018                           ;mcc_generated_files/pin_manager.c: 67:     TRISB = 0xFF;
  1019     0149  30FF               	movlw	255
  1020     014A  008D               	movwf	13	;volatile
  1021     014B                     l1099:
  1022                           
  1023                           ;mcc_generated_files/pin_manager.c: 72:     ANSELB = 0xFE;
  1024     014B  30FE               	movlw	254
  1025     014C  0023               	movlb	3	; select bank3
  1026     014D  008D               	movwf	13	;volatile
  1027                           
  1028                           ;mcc_generated_files/pin_manager.c: 73:     ANSELA = 0x00;
  1029     014E  018C               	clrf	12	;volatile
  1030                           
  1031                           ;mcc_generated_files/pin_manager.c: 78:     WPUB = 0x00;
  1032     014F  0024               	movlb	4	; select bank4
  1033     0150  018D               	clrf	13	;volatile
  1034                           
  1035                           ;mcc_generated_files/pin_manager.c: 79:     WPUA = 0x00;
  1036     0151  018C               	clrf	12	;volatile
  1037     0152                     l1101:
  1038                           
  1039                           ;mcc_generated_files/pin_manager.c: 80:     OPTION_REGbits.nWPUEN = 1;
  1040     0152  0021               	movlb	1	; select bank1
  1041     0153  1795               	bsf	21,7	;volatile
  1042                           
  1043                           ;mcc_generated_files/pin_manager.c: 86:     APFCON0 = 0x00;
  1044     0154  0022               	movlb	2	; select bank2
  1045     0155  019D               	clrf	29	;volatile
  1046                           
  1047                           ;mcc_generated_files/pin_manager.c: 87:     APFCON1 = 0x00;
  1048     0156  019E               	clrf	30	;volatile
  1049     0157                     l25:
  1050     0157  0008               	return
  1051     0158                     __end_of_PIN_MANAGER_Initialize:
  1052                           
  1053                           	psect	text4
  1054     0107                     __ptext4:	
  1055 ;; *************** function _OSCILLATOR_Initialize *****************
  1056 ;; Defined at:
  1057 ;;		line 58 in file "mcc_generated_files/mcc.c"
  1058 ;; Parameters:    Size  Location     Type
  1059 ;;		None
  1060 ;; Auto vars:     Size  Location     Type
  1061 ;;		None
  1062 ;; Return value:  Size  Location     Type
  1063 ;;                  1    wreg      void 
  1064 ;; Registers used:
  1065 ;;		wreg, status,2
  1066 ;; Tracked objects:
  1067 ;;		On entry : 0/0
  1068 ;;		On exit  : 0/0
  1069 ;;		Unchanged: 0/0
  1070 ;; Data sizes:     COMMON   BANK0   BANK1   BANK2
  1071 ;;      Params:         0       0       0       0
  1072 ;;      Locals:         0       0       0       0
  1073 ;;      Temps:          0       0       0       0
  1074 ;;      Totals:         0       0       0       0
  1075 ;;Total ram usage:        0 bytes
  1076 ;; Hardware stack levels used: 1
  1077 ;; This function calls:
  1078 ;;		Nothing
  1079 ;; This function is called by:
  1080 ;;		_SYSTEM_Initialize
  1081 ;; This function uses a non-reentrant model
  1082 ;;
  1083                           
  1084     0107                     _OSCILLATOR_Initialize:	
  1085                           ;psect for function _OSCILLATOR_Initialize
  1086                           
  1087     0107                     l1103:	
  1088                           ;incstack = 0
  1089                           ; Regs used in _OSCILLATOR_Initialize: [wreg+status,2]
  1090                           
  1091                           
  1092                           ;mcc_generated_files/mcc.c: 61:     OSCCON = 0x48;
  1093     0107  3048               	movlw	72
  1094     0108  0021               	movlb	1	; select bank1
  1095     0109  0099               	movwf	25	;volatile
  1096     010A                     l1105:
  1097                           
  1098                           ;mcc_generated_files/mcc.c: 63:     OSCTUNE = 0x00;
  1099     010A  0198               	clrf	24	;volatile
  1100     010B                     l1107:
  1101                           
  1102                           ;mcc_generated_files/mcc.c: 65:     BORCON = 0x00;
  1103     010B  0022               	movlb	2	; select bank2
  1104     010C  0196               	clrf	22	;volatile
  1105     010D                     l48:
  1106     010D  0008               	return
  1107     010E                     __end_of_OSCILLATOR_Initialize:
  1108                           
  1109                           	psect	text5
  1110     0251                     __ptext5:	
  1111 ;; *************** function _LHalf_NumBuilder *****************
  1112 ;; Defined at:
  1113 ;;		line 87 in file "rendering.c"
  1114 ;; Parameters:    Size  Location     Type
  1115 ;;  character_li    1    wreg     const unsigned char 
  1116 ;;  Block           1    0[COMMON] PTR const struct BlockSe
  1117 ;;		 -> NumberBlocks(21), 
  1118 ;;  hours           1    1[COMMON] const unsigned char 
  1119 ;; Auto vars:     Size  Location     Type
  1120 ;;  character_li    1    4[COMMON] const unsigned char 
  1121 ;; Return value:  Size  Location     Type
  1122 ;;                  1    wreg      unsigned char 
  1123 ;; Registers used:
  1124 ;;		wreg, fsr1l, fsr1h, status,2, status,0
  1125 ;; Tracked objects:
  1126 ;;		On entry : 0/0
  1127 ;;		On exit  : 0/0
  1128 ;;		Unchanged: 0/0
  1129 ;; Data sizes:     COMMON   BANK0   BANK1   BANK2
  1130 ;;      Params:         2       0       0       0
  1131 ;;      Locals:         1       0       0       0
  1132 ;;      Temps:          2       0       0       0
  1133 ;;      Totals:         5       0       0       0
  1134 ;;Total ram usage:        5 bytes
  1135 ;; Hardware stack levels used: 1
  1136 ;; This function calls:
  1137 ;;		Nothing
  1138 ;; This function is called by:
  1139 ;;		_main
  1140 ;; This function uses a non-reentrant model
  1141 ;;
  1142                           
  1143     0251                     _LHalf_NumBuilder:	
  1144                           ;psect for function _LHalf_NumBuilder
  1145                           
  1146                           
  1147                           ;incstack = 0
  1148                           ; Regs used in _LHalf_NumBuilder: [wreg+fsr1l+fsr1h+status,2+status,0]
  1149                           ;LHalf_NumBuilder@character_line stored from wreg
  1150     0251  00F4               	movwf	LHalf_NumBuilder@character_line
  1151     0252                     l1215:
  1152                           
  1153                           ;rendering.c: 88:     static Uint8 Output = 0;;rendering.c: 98:     if(hours == 0){
  1154     0252  0871               	movf	LHalf_NumBuilder@hours,w
  1155     0253  1D03               	btfss	3,2
  1156     0254  2A56               	goto	u1331
  1157     0255  2A57               	goto	u1330
  1158     0256                     u1331:
  1159     0256  2ADC               	goto	l1239
  1160     0257                     u1330:
  1161     0257                     l1217:
  1162                           
  1163                           ;rendering.c: 99:        Output = ((Block->ABlock << (character_line)) & 0b10000000);
  1164     0257  0870               	movf	LHalf_NumBuilder@Block,w
  1165     0258  0086               	movwf	6
  1166     0259  0187               	clrf	7
  1167     025A  0801               	movf	1,w
  1168     025B  00F2               	movwf	??_LHalf_NumBuilder
  1169     025C  0A74               	incf	LHalf_NumBuilder@character_line,w
  1170     025D  2A5F               	goto	u1344
  1171     025E                     u1345:
  1172     025E  35F2               	lslf	??_LHalf_NumBuilder,f
  1173     025F                     u1344:
  1174     025F  0B89               	decfsz	9,f
  1175     0260  2A5E               	goto	u1345
  1176     0261  0872               	movf	??_LHalf_NumBuilder,w
  1177     0262  3980               	andlw	128
  1178     0263  0020               	movlb	0	; select bank0
  1179     0264  00B8               	movwf	LHalf_NumBuilder@Output
  1180     0265                     l1219:
  1181                           
  1182                           ;rendering.c: 100:        Output >>= 1;
  1183     0265  1003               	clrc
  1184     0266  0CB8               	rrf	LHalf_NumBuilder@Output,f
  1185     0267                     l1221:
  1186                           
  1187                           ;rendering.c: 101:        Output |= ((Block->BBlock << (character_line)) & 0b10000000);
  1188     0267  0A70               	incf	LHalf_NumBuilder@Block,w
  1189     0268  0086               	movwf	6
  1190     0269  0187               	clrf	7
  1191     026A  0801               	movf	1,w
  1192     026B  00F2               	movwf	??_LHalf_NumBuilder
  1193     026C  0A74               	incf	LHalf_NumBuilder@character_line,w
  1194     026D  2A6F               	goto	u1354
  1195     026E                     u1355:
  1196     026E  35F2               	lslf	??_LHalf_NumBuilder,f
  1197     026F                     u1354:
  1198     026F  0B89               	decfsz	9,f
  1199     0270  2A6E               	goto	u1355
  1200     0271  0872               	movf	??_LHalf_NumBuilder,w
  1201     0272  3980               	andlw	128
  1202     0273  00F3               	movwf	??_LHalf_NumBuilder+1
  1203     0274  0873               	movf	??_LHalf_NumBuilder+1,w
  1204     0275  04B8               	iorwf	LHalf_NumBuilder@Output,f
  1205                           
  1206                           ;rendering.c: 102:        Output >>= 1;
  1207     0276  1003               	clrc
  1208     0277  0CB8               	rrf	LHalf_NumBuilder@Output,f
  1209     0278                     l1223:
  1210                           
  1211                           ;rendering.c: 103:        Output |= ((Block->BBlock << (character_line)) & 0b10000000);
  1212     0278  0A70               	incf	LHalf_NumBuilder@Block,w
  1213     0279  0086               	movwf	6
  1214     027A  0187               	clrf	7
  1215     027B  0801               	movf	1,w
  1216     027C  00F2               	movwf	??_LHalf_NumBuilder
  1217     027D  0A74               	incf	LHalf_NumBuilder@character_line,w
  1218     027E  2A80               	goto	u1364
  1219     027F                     u1365:
  1220     027F  35F2               	lslf	??_LHalf_NumBuilder,f
  1221     0280                     u1364:
  1222     0280  0B89               	decfsz	9,f
  1223     0281  2A7F               	goto	u1365
  1224     0282  0872               	movf	??_LHalf_NumBuilder,w
  1225     0283  3980               	andlw	128
  1226     0284  00F3               	movwf	??_LHalf_NumBuilder+1
  1227     0285  0873               	movf	??_LHalf_NumBuilder+1,w
  1228     0286  04B8               	iorwf	LHalf_NumBuilder@Output,f
  1229     0287                     l1225:
  1230                           
  1231                           ;rendering.c: 104:        Output >>= 1;
  1232     0287  1003               	clrc
  1233     0288  0CB8               	rrf	LHalf_NumBuilder@Output,f
  1234                           
  1235                           ;rendering.c: 105:        Output |= ((Block->BBlock << (character_line)) & 0b10000000);
  1236     0289  0A70               	incf	LHalf_NumBuilder@Block,w
  1237     028A  0086               	movwf	6
  1238     028B  0187               	clrf	7
  1239     028C  0801               	movf	1,w
  1240     028D  00F2               	movwf	??_LHalf_NumBuilder
  1241     028E  0A74               	incf	LHalf_NumBuilder@character_line,w
  1242     028F  2A91               	goto	u1374
  1243     0290                     u1375:
  1244     0290  35F2               	lslf	??_LHalf_NumBuilder,f
  1245     0291                     u1374:
  1246     0291  0B89               	decfsz	9,f
  1247     0292  2A90               	goto	u1375
  1248     0293  0872               	movf	??_LHalf_NumBuilder,w
  1249     0294  3980               	andlw	128
  1250     0295  00F3               	movwf	??_LHalf_NumBuilder+1
  1251     0296  0873               	movf	??_LHalf_NumBuilder+1,w
  1252     0297  04B8               	iorwf	LHalf_NumBuilder@Output,f
  1253     0298                     l1227:
  1254                           
  1255                           ;rendering.c: 106:        Output >>= 1;
  1256     0298  1003               	clrc
  1257     0299  0CB8               	rrf	LHalf_NumBuilder@Output,f
  1258     029A                     l1229:
  1259                           
  1260                           ;rendering.c: 107:        Output |= ((Block->BBlock << (character_line)) & 0b10000000);
  1261     029A  0A70               	incf	LHalf_NumBuilder@Block,w
  1262     029B  0086               	movwf	6
  1263     029C  0187               	clrf	7
  1264     029D  0801               	movf	1,w
  1265     029E  00F2               	movwf	??_LHalf_NumBuilder
  1266     029F  0A74               	incf	LHalf_NumBuilder@character_line,w
  1267     02A0  2AA2               	goto	u1384
  1268     02A1                     u1385:
  1269     02A1  35F2               	lslf	??_LHalf_NumBuilder,f
  1270     02A2                     u1384:
  1271     02A2  0B89               	decfsz	9,f
  1272     02A3  2AA1               	goto	u1385
  1273     02A4  0872               	movf	??_LHalf_NumBuilder,w
  1274     02A5  3980               	andlw	128
  1275     02A6  00F3               	movwf	??_LHalf_NumBuilder+1
  1276     02A7  0873               	movf	??_LHalf_NumBuilder+1,w
  1277     02A8  04B8               	iorwf	LHalf_NumBuilder@Output,f
  1278                           
  1279                           ;rendering.c: 108:        Output >>= 1;
  1280     02A9  1003               	clrc
  1281     02AA  0CB8               	rrf	LHalf_NumBuilder@Output,f
  1282     02AB                     l1231:
  1283                           
  1284                           ;rendering.c: 109:        Output |= ((Block->BBlock << (character_line)) & 0b10000000);
  1285     02AB  0A70               	incf	LHalf_NumBuilder@Block,w
  1286     02AC  0086               	movwf	6
  1287     02AD  0187               	clrf	7
  1288     02AE  0801               	movf	1,w
  1289     02AF  00F2               	movwf	??_LHalf_NumBuilder
  1290     02B0  0A74               	incf	LHalf_NumBuilder@character_line,w
  1291     02B1  2AB3               	goto	u1394
  1292     02B2                     u1395:
  1293     02B2  35F2               	lslf	??_LHalf_NumBuilder,f
  1294     02B3                     u1394:
  1295     02B3  0B89               	decfsz	9,f
  1296     02B4  2AB2               	goto	u1395
  1297     02B5  0872               	movf	??_LHalf_NumBuilder,w
  1298     02B6  3980               	andlw	128
  1299     02B7  00F3               	movwf	??_LHalf_NumBuilder+1
  1300     02B8  0873               	movf	??_LHalf_NumBuilder+1,w
  1301     02B9  04B8               	iorwf	LHalf_NumBuilder@Output,f
  1302     02BA                     l1233:
  1303                           
  1304                           ;rendering.c: 110:        Output >>= 1;
  1305     02BA  1003               	clrc
  1306     02BB  0CB8               	rrf	LHalf_NumBuilder@Output,f
  1307                           
  1308                           ;rendering.c: 111:        Output |= ((Block->BBlock << (character_line)) & 0b10000000);
  1309     02BC  0A70               	incf	LHalf_NumBuilder@Block,w
  1310     02BD  0086               	movwf	6
  1311     02BE  0187               	clrf	7
  1312     02BF  0801               	movf	1,w
  1313     02C0  00F2               	movwf	??_LHalf_NumBuilder
  1314     02C1  0A74               	incf	LHalf_NumBuilder@character_line,w
  1315     02C2  2AC4               	goto	u1404
  1316     02C3                     u1405:
  1317     02C3  35F2               	lslf	??_LHalf_NumBuilder,f
  1318     02C4                     u1404:
  1319     02C4  0B89               	decfsz	9,f
  1320     02C5  2AC3               	goto	u1405
  1321     02C6  0872               	movf	??_LHalf_NumBuilder,w
  1322     02C7  3980               	andlw	128
  1323     02C8  00F3               	movwf	??_LHalf_NumBuilder+1
  1324     02C9  0873               	movf	??_LHalf_NumBuilder+1,w
  1325     02CA  04B8               	iorwf	LHalf_NumBuilder@Output,f
  1326     02CB                     l1235:
  1327                           
  1328                           ;rendering.c: 112:        Output >>= 1;
  1329     02CB  1003               	clrc
  1330     02CC  0CB8               	rrf	LHalf_NumBuilder@Output,f
  1331     02CD                     l1237:
  1332                           
  1333                           ;rendering.c: 113:        Output |= ((Block->ABlock << (character_line)) & 0b10000000);
  1334     02CD  0870               	movf	LHalf_NumBuilder@Block,w
  1335     02CE  0086               	movwf	6
  1336     02CF  0187               	clrf	7
  1337     02D0  0801               	movf	1,w
  1338     02D1  00F2               	movwf	??_LHalf_NumBuilder
  1339     02D2  0A74               	incf	LHalf_NumBuilder@character_line,w
  1340     02D3  2AD5               	goto	u1414
  1341     02D4                     u1415:
  1342     02D4  35F2               	lslf	??_LHalf_NumBuilder,f
  1343     02D5                     u1414:
  1344     02D5  0B89               	decfsz	9,f
  1345     02D6  2AD4               	goto	u1415
  1346     02D7  0872               	movf	??_LHalf_NumBuilder,w
  1347     02D8  3980               	andlw	128
  1348     02D9  00F3               	movwf	??_LHalf_NumBuilder+1
  1349     02DA  0873               	movf	??_LHalf_NumBuilder+1,w
  1350     02DB  04B8               	iorwf	LHalf_NumBuilder@Output,f
  1351     02DC                     l1239:
  1352                           
  1353                           ;rendering.c: 116:     if(hours == 1){
  1354     02DC  0371               	decf	LHalf_NumBuilder@hours,w
  1355     02DD  1D03               	btfss	3,2
  1356     02DE  2AE0               	goto	u1421
  1357     02DF  2AE1               	goto	u1420
  1358     02E0                     u1421:
  1359     02E0  2B6E               	goto	l1263
  1360     02E1                     u1420:
  1361     02E1                     l1241:
  1362                           
  1363                           ;rendering.c: 118:        Output = ((Block->FBlock << (character_line)) & 0b10000000);
  1364     02E1  0870               	movf	LHalf_NumBuilder@Block,w
  1365     02E2  3E05               	addlw	5
  1366     02E3  0086               	movwf	6
  1367     02E4  0187               	clrf	7
  1368     02E5  0801               	movf	1,w
  1369     02E6  00F2               	movwf	??_LHalf_NumBuilder
  1370     02E7  0A74               	incf	LHalf_NumBuilder@character_line,w
  1371     02E8  2AEA               	goto	u1434
  1372     02E9                     u1435:
  1373     02E9  35F2               	lslf	??_LHalf_NumBuilder,f
  1374     02EA                     u1434:
  1375     02EA  0B89               	decfsz	9,f
  1376     02EB  2AE9               	goto	u1435
  1377     02EC  0872               	movf	??_LHalf_NumBuilder,w
  1378     02ED  3980               	andlw	128
  1379     02EE  0020               	movlb	0	; select bank0
  1380     02EF  00B8               	movwf	LHalf_NumBuilder@Output
  1381     02F0                     l1243:
  1382                           
  1383                           ;rendering.c: 119:        Output >>= 1;
  1384     02F0  1003               	clrc
  1385     02F1  0CB8               	rrf	LHalf_NumBuilder@Output,f
  1386     02F2                     l1245:
  1387                           
  1388                           ;rendering.c: 120:        Output |= ((Block->CBlock << (character_line)) & 0b10000000);
  1389     02F2  0870               	movf	LHalf_NumBuilder@Block,w
  1390     02F3  3E02               	addlw	2
  1391     02F4  0086               	movwf	6
  1392     02F5  0187               	clrf	7
  1393     02F6  0801               	movf	1,w
  1394     02F7  00F2               	movwf	??_LHalf_NumBuilder
  1395     02F8  0A74               	incf	LHalf_NumBuilder@character_line,w
  1396     02F9  2AFB               	goto	u1444
  1397     02FA                     u1445:
  1398     02FA  35F2               	lslf	??_LHalf_NumBuilder,f
  1399     02FB                     u1444:
  1400     02FB  0B89               	decfsz	9,f
  1401     02FC  2AFA               	goto	u1445
  1402     02FD  0872               	movf	??_LHalf_NumBuilder,w
  1403     02FE  3980               	andlw	128
  1404     02FF  00F3               	movwf	??_LHalf_NumBuilder+1
  1405     0300  0873               	movf	??_LHalf_NumBuilder+1,w
  1406     0301  04B8               	iorwf	LHalf_NumBuilder@Output,f
  1407                           
  1408                           ;rendering.c: 121:        Output >>= 1;
  1409     0302  1003               	clrc
  1410     0303  0CB8               	rrf	LHalf_NumBuilder@Output,f
  1411     0304                     l1247:
  1412                           
  1413                           ;rendering.c: 122:        Output |= ((Block->CBlock << (character_line)) & 0b10000000);
  1414     0304  0870               	movf	LHalf_NumBuilder@Block,w
  1415     0305  3E02               	addlw	2
  1416     0306  0086               	movwf	6
  1417     0307  0187               	clrf	7
  1418     0308  0801               	movf	1,w
  1419     0309  00F2               	movwf	??_LHalf_NumBuilder
  1420     030A  0A74               	incf	LHalf_NumBuilder@character_line,w
  1421     030B  2B0D               	goto	u1454
  1422     030C                     u1455:
  1423     030C  35F2               	lslf	??_LHalf_NumBuilder,f
  1424     030D                     u1454:
  1425     030D  0B89               	decfsz	9,f
  1426     030E  2B0C               	goto	u1455
  1427     030F  0872               	movf	??_LHalf_NumBuilder,w
  1428     0310  3980               	andlw	128
  1429     0311  00F3               	movwf	??_LHalf_NumBuilder+1
  1430     0312  0873               	movf	??_LHalf_NumBuilder+1,w
  1431     0313  04B8               	iorwf	LHalf_NumBuilder@Output,f
  1432     0314                     l1249:
  1433                           
  1434                           ;rendering.c: 123:        Output >>= 1;
  1435     0314  1003               	clrc
  1436     0315  0CB8               	rrf	LHalf_NumBuilder@Output,f
  1437                           
  1438                           ;rendering.c: 124:        Output |= ((Block->CBlock << (character_line)) & 0b10000000);
  1439     0316  0870               	movf	LHalf_NumBuilder@Block,w
  1440     0317  3E02               	addlw	2
  1441     0318  0086               	movwf	6
  1442     0319  0187               	clrf	7
  1443     031A  0801               	movf	1,w
  1444     031B  00F2               	movwf	??_LHalf_NumBuilder
  1445     031C  0A74               	incf	LHalf_NumBuilder@character_line,w
  1446     031D  2B1F               	goto	u1464
  1447     031E                     u1465:
  1448     031E  35F2               	lslf	??_LHalf_NumBuilder,f
  1449     031F                     u1464:
  1450     031F  0B89               	decfsz	9,f
  1451     0320  2B1E               	goto	u1465
  1452     0321  0872               	movf	??_LHalf_NumBuilder,w
  1453     0322  3980               	andlw	128
  1454     0323  00F3               	movwf	??_LHalf_NumBuilder+1
  1455     0324  0873               	movf	??_LHalf_NumBuilder+1,w
  1456     0325  04B8               	iorwf	LHalf_NumBuilder@Output,f
  1457     0326                     l1251:
  1458                           
  1459                           ;rendering.c: 125:        Output >>= 1;
  1460     0326  1003               	clrc
  1461     0327  0CB8               	rrf	LHalf_NumBuilder@Output,f
  1462     0328                     l1253:
  1463                           
  1464                           ;rendering.c: 126:        Output |= ((Block->CBlock << (character_line)) & 0b10000000);
  1465     0328  0870               	movf	LHalf_NumBuilder@Block,w
  1466     0329  3E02               	addlw	2
  1467     032A  0086               	movwf	6
  1468     032B  0187               	clrf	7
  1469     032C  0801               	movf	1,w
  1470     032D  00F2               	movwf	??_LHalf_NumBuilder
  1471     032E  0A74               	incf	LHalf_NumBuilder@character_line,w
  1472     032F  2B31               	goto	u1474
  1473     0330                     u1475:
  1474     0330  35F2               	lslf	??_LHalf_NumBuilder,f
  1475     0331                     u1474:
  1476     0331  0B89               	decfsz	9,f
  1477     0332  2B30               	goto	u1475
  1478     0333  0872               	movf	??_LHalf_NumBuilder,w
  1479     0334  3980               	andlw	128
  1480     0335  00F3               	movwf	??_LHalf_NumBuilder+1
  1481     0336  0873               	movf	??_LHalf_NumBuilder+1,w
  1482     0337  04B8               	iorwf	LHalf_NumBuilder@Output,f
  1483                           
  1484                           ;rendering.c: 127:        Output >>= 1;
  1485     0338  1003               	clrc
  1486     0339  0CB8               	rrf	LHalf_NumBuilder@Output,f
  1487     033A                     l1255:
  1488                           
  1489                           ;rendering.c: 128:        Output |= ((Block->EBlock << (character_line)) & 0b10000000);
  1490     033A  0870               	movf	LHalf_NumBuilder@Block,w
  1491     033B  3E04               	addlw	4
  1492     033C  0086               	movwf	6
  1493     033D  0187               	clrf	7
  1494     033E  0801               	movf	1,w
  1495     033F  00F2               	movwf	??_LHalf_NumBuilder
  1496     0340  0A74               	incf	LHalf_NumBuilder@character_line,w
  1497     0341  2B43               	goto	u1484
  1498     0342                     u1485:
  1499     0342  35F2               	lslf	??_LHalf_NumBuilder,f
  1500     0343                     u1484:
  1501     0343  0B89               	decfsz	9,f
  1502     0344  2B42               	goto	u1485
  1503     0345  0872               	movf	??_LHalf_NumBuilder,w
  1504     0346  3980               	andlw	128
  1505     0347  00F3               	movwf	??_LHalf_NumBuilder+1
  1506     0348  0873               	movf	??_LHalf_NumBuilder+1,w
  1507     0349  04B8               	iorwf	LHalf_NumBuilder@Output,f
  1508     034A                     l1257:
  1509                           
  1510                           ;rendering.c: 129:        Output >>= 1;
  1511     034A  1003               	clrc
  1512     034B  0CB8               	rrf	LHalf_NumBuilder@Output,f
  1513                           
  1514                           ;rendering.c: 130:        Output |= ((Block->DBlock << (character_line)) & 0b10000000);
  1515     034C  0870               	movf	LHalf_NumBuilder@Block,w
  1516     034D  3E03               	addlw	3
  1517     034E  0086               	movwf	6
  1518     034F  0187               	clrf	7
  1519     0350  0801               	movf	1,w
  1520     0351  00F2               	movwf	??_LHalf_NumBuilder
  1521     0352  0A74               	incf	LHalf_NumBuilder@character_line,w
  1522     0353  2B55               	goto	u1494
  1523     0354                     u1495:
  1524     0354  35F2               	lslf	??_LHalf_NumBuilder,f
  1525     0355                     u1494:
  1526     0355  0B89               	decfsz	9,f
  1527     0356  2B54               	goto	u1495
  1528     0357  0872               	movf	??_LHalf_NumBuilder,w
  1529     0358  3980               	andlw	128
  1530     0359  00F3               	movwf	??_LHalf_NumBuilder+1
  1531     035A  0873               	movf	??_LHalf_NumBuilder+1,w
  1532     035B  04B8               	iorwf	LHalf_NumBuilder@Output,f
  1533     035C                     l1259:
  1534                           
  1535                           ;rendering.c: 131:        Output >>= 1;
  1536     035C  1003               	clrc
  1537     035D  0CB8               	rrf	LHalf_NumBuilder@Output,f
  1538     035E                     l1261:
  1539                           
  1540                           ;rendering.c: 132:        Output |= ((Block->CBlock << (character_line)) & 0b10000000);
  1541     035E  0870               	movf	LHalf_NumBuilder@Block,w
  1542     035F  3E02               	addlw	2
  1543     0360  0086               	movwf	6
  1544     0361  0187               	clrf	7
  1545     0362  0801               	movf	1,w
  1546     0363  00F2               	movwf	??_LHalf_NumBuilder
  1547     0364  0A74               	incf	LHalf_NumBuilder@character_line,w
  1548     0365  2B67               	goto	u1504
  1549     0366                     u1505:
  1550     0366  35F2               	lslf	??_LHalf_NumBuilder,f
  1551     0367                     u1504:
  1552     0367  0B89               	decfsz	9,f
  1553     0368  2B66               	goto	u1505
  1554     0369  0872               	movf	??_LHalf_NumBuilder,w
  1555     036A  3980               	andlw	128
  1556     036B  00F3               	movwf	??_LHalf_NumBuilder+1
  1557     036C  0873               	movf	??_LHalf_NumBuilder+1,w
  1558     036D  04B8               	iorwf	LHalf_NumBuilder@Output,f
  1559     036E                     l1263:
  1560                           
  1561                           ;rendering.c: 135:     if(hours == 2){
  1562     036E  3002               	movlw	2
  1563     036F  0671               	xorwf	LHalf_NumBuilder@hours,w
  1564     0370  1D03               	btfss	3,2
  1565     0371  2B73               	goto	u1511
  1566     0372  2B74               	goto	u1510
  1567     0373                     u1511:
  1568     0373  2BFE               	goto	l1287
  1569     0374                     u1510:
  1570     0374                     l1265:
  1571                           
  1572                           ;rendering.c: 137:        Output = ((Block->FBlock << (character_line)) & 0b10000000);
  1573     0374  0870               	movf	LHalf_NumBuilder@Block,w
  1574     0375  3E05               	addlw	5
  1575     0376  0086               	movwf	6
  1576     0377  0187               	clrf	7
  1577     0378  0801               	movf	1,w
  1578     0379  00F2               	movwf	??_LHalf_NumBuilder
  1579     037A  0A74               	incf	LHalf_NumBuilder@character_line,w
  1580     037B  2B7D               	goto	u1524
  1581     037C                     u1525:
  1582     037C  35F2               	lslf	??_LHalf_NumBuilder,f
  1583     037D                     u1524:
  1584     037D  0B89               	decfsz	9,f
  1585     037E  2B7C               	goto	u1525
  1586     037F  0872               	movf	??_LHalf_NumBuilder,w
  1587     0380  3980               	andlw	128
  1588     0381  0020               	movlb	0	; select bank0
  1589     0382  00B8               	movwf	LHalf_NumBuilder@Output
  1590     0383                     l1267:
  1591                           
  1592                           ;rendering.c: 138:        Output >>= 1;
  1593     0383  1003               	clrc
  1594     0384  0CB8               	rrf	LHalf_NumBuilder@Output,f
  1595     0385                     l1269:
  1596                           
  1597                           ;rendering.c: 139:        Output |= ((Block->HBlock << (character_line)) & 0b10000000);
  1598     0385  0870               	movf	LHalf_NumBuilder@Block,w
  1599     0386  3E07               	addlw	7
  1600     0387  0086               	movwf	6
  1601     0388  0187               	clrf	7
  1602     0389  0801               	movf	1,w
  1603     038A  00F2               	movwf	??_LHalf_NumBuilder
  1604     038B  0A74               	incf	LHalf_NumBuilder@character_line,w
  1605     038C  2B8E               	goto	u1534
  1606     038D                     u1535:
  1607     038D  35F2               	lslf	??_LHalf_NumBuilder,f
  1608     038E                     u1534:
  1609     038E  0B89               	decfsz	9,f
  1610     038F  2B8D               	goto	u1535
  1611     0390  0872               	movf	??_LHalf_NumBuilder,w
  1612     0391  3980               	andlw	128
  1613     0392  00F3               	movwf	??_LHalf_NumBuilder+1
  1614     0393  0873               	movf	??_LHalf_NumBuilder+1,w
  1615     0394  04B8               	iorwf	LHalf_NumBuilder@Output,f
  1616                           
  1617                           ;rendering.c: 140:        Output >>= 1;
  1618     0395  1003               	clrc
  1619     0396  0CB8               	rrf	LHalf_NumBuilder@Output,f
  1620     0397                     l1271:
  1621                           
  1622                           ;rendering.c: 141:        Output |= ((Block->SBlock << (character_line)) & 0b10000000);
  1623     0397  0870               	movf	LHalf_NumBuilder@Block,w
  1624     0398  3E12               	addlw	18
  1625     0399  0086               	movwf	6
  1626     039A  0187               	clrf	7
  1627     039B  0801               	movf	1,w
  1628     039C  00F2               	movwf	??_LHalf_NumBuilder
  1629     039D  0A74               	incf	LHalf_NumBuilder@character_line,w
  1630     039E  2BA0               	goto	u1544
  1631     039F                     u1545:
  1632     039F  35F2               	lslf	??_LHalf_NumBuilder,f
  1633     03A0                     u1544:
  1634     03A0  0B89               	decfsz	9,f
  1635     03A1  2B9F               	goto	u1545
  1636     03A2  0872               	movf	??_LHalf_NumBuilder,w
  1637     03A3  3980               	andlw	128
  1638     03A4  00F3               	movwf	??_LHalf_NumBuilder+1
  1639     03A5  0873               	movf	??_LHalf_NumBuilder+1,w
  1640     03A6  04B8               	iorwf	LHalf_NumBuilder@Output,f
  1641     03A7                     l1273:
  1642                           
  1643                           ;rendering.c: 142:        Output >>= 1;
  1644     03A7  1003               	clrc
  1645     03A8  0CB8               	rrf	LHalf_NumBuilder@Output,f
  1646                           
  1647                           ;rendering.c: 143:        Output |= ((Block->DBlock << (character_line)) & 0b10000000);
  1648     03A9  0870               	movf	LHalf_NumBuilder@Block,w
  1649     03AA  3E03               	addlw	3
  1650     03AB  0086               	movwf	6
  1651     03AC  0187               	clrf	7
  1652     03AD  0801               	movf	1,w
  1653     03AE  00F2               	movwf	??_LHalf_NumBuilder
  1654     03AF  0A74               	incf	LHalf_NumBuilder@character_line,w
  1655     03B0  2BB2               	goto	u1554
  1656     03B1                     u1555:
  1657     03B1  35F2               	lslf	??_LHalf_NumBuilder,f
  1658     03B2                     u1554:
  1659     03B2  0B89               	decfsz	9,f
  1660     03B3  2BB1               	goto	u1555
  1661     03B4  0872               	movf	??_LHalf_NumBuilder,w
  1662     03B5  3980               	andlw	128
  1663     03B6  00F3               	movwf	??_LHalf_NumBuilder+1
  1664     03B7  0873               	movf	??_LHalf_NumBuilder+1,w
  1665     03B8  04B8               	iorwf	LHalf_NumBuilder@Output,f
  1666     03B9                     l1275:
  1667                           
  1668                           ;rendering.c: 144:        Output >>= 1;
  1669     03B9  1003               	clrc
  1670     03BA  0CB8               	rrf	LHalf_NumBuilder@Output,f
  1671     03BB                     l1277:
  1672                           
  1673                           ;rendering.c: 145:        Output |= ((Block->GBlock << (character_line)) & 0b10000000);
  1674     03BB  0870               	movf	LHalf_NumBuilder@Block,w
  1675     03BC  3E06               	addlw	6
  1676     03BD  0086               	movwf	6
  1677     03BE  0187               	clrf	7
  1678     03BF  0801               	movf	1,w
  1679     03C0  00F2               	movwf	??_LHalf_NumBuilder
  1680     03C1  0A74               	incf	LHalf_NumBuilder@character_line,w
  1681     03C2  2BC4               	goto	u1564
  1682     03C3                     u1565:
  1683     03C3  35F2               	lslf	??_LHalf_NumBuilder,f
  1684     03C4                     u1564:
  1685     03C4  0B89               	decfsz	9,f
  1686     03C5  2BC3               	goto	u1565
  1687     03C6  0872               	movf	??_LHalf_NumBuilder,w
  1688     03C7  3980               	andlw	128
  1689     03C8  00F3               	movwf	??_LHalf_NumBuilder+1
  1690     03C9  0873               	movf	??_LHalf_NumBuilder+1,w
  1691     03CA  04B8               	iorwf	LHalf_NumBuilder@Output,f
  1692                           
  1693                           ;rendering.c: 146:        Output >>= 1;
  1694     03CB  1003               	clrc
  1695     03CC  0CB8               	rrf	LHalf_NumBuilder@Output,f
  1696     03CD                     l1279:
  1697                           
  1698                           ;rendering.c: 147:        Output |= ((Block->BBlock << (character_line)) & 0b10000000);
  1699     03CD  0A70               	incf	LHalf_NumBuilder@Block,w
  1700     03CE  0086               	movwf	6
  1701     03CF  0187               	clrf	7
  1702     03D0  0801               	movf	1,w
  1703     03D1  00F2               	movwf	??_LHalf_NumBuilder
  1704     03D2  0A74               	incf	LHalf_NumBuilder@character_line,w
  1705     03D3  2BD5               	goto	u1574
  1706     03D4                     u1575:
  1707     03D4  35F2               	lslf	??_LHalf_NumBuilder,f
  1708     03D5                     u1574:
  1709     03D5  0B89               	decfsz	9,f
  1710     03D6  2BD4               	goto	u1575
  1711     03D7  0872               	movf	??_LHalf_NumBuilder,w
  1712     03D8  3980               	andlw	128
  1713     03D9  00F3               	movwf	??_LHalf_NumBuilder+1
  1714     03DA  0873               	movf	??_LHalf_NumBuilder+1,w
  1715     03DB  04B8               	iorwf	LHalf_NumBuilder@Output,f
  1716     03DC                     l1281:
  1717                           
  1718                           ;rendering.c: 148:        Output >>= 1;
  1719     03DC  1003               	clrc
  1720     03DD  0CB8               	rrf	LHalf_NumBuilder@Output,f
  1721                           
  1722                           ;rendering.c: 149:        Output |= ((Block->BBlock << (character_line)) & 0b10000000);
  1723     03DE  0A70               	incf	LHalf_NumBuilder@Block,w
  1724     03DF  0086               	movwf	6
  1725     03E0  0187               	clrf	7
  1726     03E1  0801               	movf	1,w
  1727     03E2  00F2               	movwf	??_LHalf_NumBuilder
  1728     03E3  0A74               	incf	LHalf_NumBuilder@character_line,w
  1729     03E4  2BE6               	goto	u1584
  1730     03E5                     u1585:
  1731     03E5  35F2               	lslf	??_LHalf_NumBuilder,f
  1732     03E6                     u1584:
  1733     03E6  0B89               	decfsz	9,f
  1734     03E7  2BE5               	goto	u1585
  1735     03E8  0872               	movf	??_LHalf_NumBuilder,w
  1736     03E9  3980               	andlw	128
  1737     03EA  00F3               	movwf	??_LHalf_NumBuilder+1
  1738     03EB  0873               	movf	??_LHalf_NumBuilder+1,w
  1739     03EC  04B8               	iorwf	LHalf_NumBuilder@Output,f
  1740     03ED                     l1283:
  1741                           
  1742                           ;rendering.c: 150:        Output >>= 1;
  1743     03ED  1003               	clrc
  1744     03EE  0CB8               	rrf	LHalf_NumBuilder@Output,f
  1745     03EF                     l1285:
  1746                           
  1747                           ;rendering.c: 151:        Output |= ((Block->ABlock << (character_line)) & 0b10000000);
  1748     03EF  0870               	movf	LHalf_NumBuilder@Block,w
  1749     03F0  0086               	movwf	6
  1750     03F1  0187               	clrf	7
  1751     03F2  0801               	movf	1,w
  1752     03F3  00F2               	movwf	??_LHalf_NumBuilder
  1753     03F4  0A74               	incf	LHalf_NumBuilder@character_line,w
  1754     03F5  2BF7               	goto	u1594
  1755     03F6                     u1595:
  1756     03F6  35F2               	lslf	??_LHalf_NumBuilder,f
  1757     03F7                     u1594:
  1758     03F7  0B89               	decfsz	9,f
  1759     03F8  2BF6               	goto	u1595
  1760     03F9  0872               	movf	??_LHalf_NumBuilder,w
  1761     03FA  3980               	andlw	128
  1762     03FB  00F3               	movwf	??_LHalf_NumBuilder+1
  1763     03FC  0873               	movf	??_LHalf_NumBuilder+1,w
  1764     03FD  04B8               	iorwf	LHalf_NumBuilder@Output,f
  1765     03FE                     l1287:
  1766                           
  1767                           ;rendering.c: 154:     if(hours == 3){
  1768     03FE  3003               	movlw	3
  1769     03FF  0671               	xorwf	LHalf_NumBuilder@hours,w
  1770     0400  1D03               	btfss	3,2
  1771     0401  2C03               	goto	u1601
  1772     0402  2C04               	goto	u1600
  1773     0403                     u1601:
  1774     0403  2C8E               	goto	l1311
  1775     0404                     u1600:
  1776     0404                     l1289:
  1777                           
  1778                           ;rendering.c: 156:        Output = ((Block->ABlock << (character_line)) & 0b10000000);
  1779     0404  0870               	movf	LHalf_NumBuilder@Block,w
  1780     0405  0086               	movwf	6
  1781     0406  0187               	clrf	7
  1782     0407  0801               	movf	1,w
  1783     0408  00F2               	movwf	??_LHalf_NumBuilder
  1784     0409  0A74               	incf	LHalf_NumBuilder@character_line,w
  1785     040A  2C0C               	goto	u1614
  1786     040B                     u1615:
  1787     040B  35F2               	lslf	??_LHalf_NumBuilder,f
  1788     040C                     u1614:
  1789     040C  0B89               	decfsz	9,f
  1790     040D  2C0B               	goto	u1615
  1791     040E  0872               	movf	??_LHalf_NumBuilder,w
  1792     040F  3980               	andlw	128
  1793     0410  0020               	movlb	0	; select bank0
  1794     0411  00B8               	movwf	LHalf_NumBuilder@Output
  1795     0412                     l1291:
  1796                           
  1797                           ;rendering.c: 157:        Output >>= 1;
  1798     0412  1003               	clrc
  1799     0413  0CB8               	rrf	LHalf_NumBuilder@Output,f
  1800     0414                     l1293:
  1801                           
  1802                           ;rendering.c: 158:        Output |= ((Block->BBlock << (character_line)) & 0b10000000);
  1803     0414  0A70               	incf	LHalf_NumBuilder@Block,w
  1804     0415  0086               	movwf	6
  1805     0416  0187               	clrf	7
  1806     0417  0801               	movf	1,w
  1807     0418  00F2               	movwf	??_LHalf_NumBuilder
  1808     0419  0A74               	incf	LHalf_NumBuilder@character_line,w
  1809     041A  2C1C               	goto	u1624
  1810     041B                     u1625:
  1811     041B  35F2               	lslf	??_LHalf_NumBuilder,f
  1812     041C                     u1624:
  1813     041C  0B89               	decfsz	9,f
  1814     041D  2C1B               	goto	u1625
  1815     041E  0872               	movf	??_LHalf_NumBuilder,w
  1816     041F  3980               	andlw	128
  1817     0420  00F3               	movwf	??_LHalf_NumBuilder+1
  1818     0421  0873               	movf	??_LHalf_NumBuilder+1,w
  1819     0422  04B8               	iorwf	LHalf_NumBuilder@Output,f
  1820                           
  1821                           ;rendering.c: 159:        Output >>= 1;
  1822     0423  1003               	clrc
  1823     0424  0CB8               	rrf	LHalf_NumBuilder@Output,f
  1824     0425                     l1295:
  1825                           
  1826                           ;rendering.c: 160:        Output |= ((Block->BBlock << (character_line)) & 0b10000000);
  1827     0425  0A70               	incf	LHalf_NumBuilder@Block,w
  1828     0426  0086               	movwf	6
  1829     0427  0187               	clrf	7
  1830     0428  0801               	movf	1,w
  1831     0429  00F2               	movwf	??_LHalf_NumBuilder
  1832     042A  0A74               	incf	LHalf_NumBuilder@character_line,w
  1833     042B  2C2D               	goto	u1634
  1834     042C                     u1635:
  1835     042C  35F2               	lslf	??_LHalf_NumBuilder,f
  1836     042D                     u1634:
  1837     042D  0B89               	decfsz	9,f
  1838     042E  2C2C               	goto	u1635
  1839     042F  0872               	movf	??_LHalf_NumBuilder,w
  1840     0430  3980               	andlw	128
  1841     0431  00F3               	movwf	??_LHalf_NumBuilder+1
  1842     0432  0873               	movf	??_LHalf_NumBuilder+1,w
  1843     0433  04B8               	iorwf	LHalf_NumBuilder@Output,f
  1844     0434                     l1297:
  1845                           
  1846                           ;rendering.c: 161:        Output >>= 1;
  1847     0434  1003               	clrc
  1848     0435  0CB8               	rrf	LHalf_NumBuilder@Output,f
  1849                           
  1850                           ;rendering.c: 162:        Output |= ((Block->JBlock << (character_line)) & 0b10000000);
  1851     0436  0870               	movf	LHalf_NumBuilder@Block,w
  1852     0437  3E09               	addlw	9
  1853     0438  0086               	movwf	6
  1854     0439  0187               	clrf	7
  1855     043A  0801               	movf	1,w
  1856     043B  00F2               	movwf	??_LHalf_NumBuilder
  1857     043C  0A74               	incf	LHalf_NumBuilder@character_line,w
  1858     043D  2C3F               	goto	u1644
  1859     043E                     u1645:
  1860     043E  35F2               	lslf	??_LHalf_NumBuilder,f
  1861     043F                     u1644:
  1862     043F  0B89               	decfsz	9,f
  1863     0440  2C3E               	goto	u1645
  1864     0441  0872               	movf	??_LHalf_NumBuilder,w
  1865     0442  3980               	andlw	128
  1866     0443  00F3               	movwf	??_LHalf_NumBuilder+1
  1867     0444  0873               	movf	??_LHalf_NumBuilder+1,w
  1868     0445  04B8               	iorwf	LHalf_NumBuilder@Output,f
  1869     0446                     l1299:
  1870                           
  1871                           ;rendering.c: 163:        Output >>= 1;
  1872     0446  1003               	clrc
  1873     0447  0CB8               	rrf	LHalf_NumBuilder@Output,f
  1874     0448                     l1301:
  1875                           
  1876                           ;rendering.c: 164:        Output |= ((Block->IBlock << (character_line)) & 0b10000000);
  1877     0448  0870               	movf	LHalf_NumBuilder@Block,w
  1878     0449  3E08               	addlw	8
  1879     044A  0086               	movwf	6
  1880     044B  0187               	clrf	7
  1881     044C  0801               	movf	1,w
  1882     044D  00F2               	movwf	??_LHalf_NumBuilder
  1883     044E  0A74               	incf	LHalf_NumBuilder@character_line,w
  1884     044F  2C51               	goto	u1654
  1885     0450                     u1655:
  1886     0450  35F2               	lslf	??_LHalf_NumBuilder,f
  1887     0451                     u1654:
  1888     0451  0B89               	decfsz	9,f
  1889     0452  2C50               	goto	u1655
  1890     0453  0872               	movf	??_LHalf_NumBuilder,w
  1891     0454  3980               	andlw	128
  1892     0455  00F3               	movwf	??_LHalf_NumBuilder+1
  1893     0456  0873               	movf	??_LHalf_NumBuilder+1,w
  1894     0457  04B8               	iorwf	LHalf_NumBuilder@Output,f
  1895                           
  1896                           ;rendering.c: 165:        Output >>= 1;
  1897     0458  1003               	clrc
  1898     0459  0CB8               	rrf	LHalf_NumBuilder@Output,f
  1899     045A                     l1303:
  1900                           
  1901                           ;rendering.c: 166:        Output |= ((Block->EBlock << (character_line)) & 0b10000000);
  1902     045A  0870               	movf	LHalf_NumBuilder@Block,w
  1903     045B  3E04               	addlw	4
  1904     045C  0086               	movwf	6
  1905     045D  0187               	clrf	7
  1906     045E  0801               	movf	1,w
  1907     045F  00F2               	movwf	??_LHalf_NumBuilder
  1908     0460  0A74               	incf	LHalf_NumBuilder@character_line,w
  1909     0461  2C63               	goto	u1664
  1910     0462                     u1665:
  1911     0462  35F2               	lslf	??_LHalf_NumBuilder,f
  1912     0463                     u1664:
  1913     0463  0B89               	decfsz	9,f
  1914     0464  2C62               	goto	u1665
  1915     0465  0872               	movf	??_LHalf_NumBuilder,w
  1916     0466  3980               	andlw	128
  1917     0467  00F3               	movwf	??_LHalf_NumBuilder+1
  1918     0468  0873               	movf	??_LHalf_NumBuilder+1,w
  1919     0469  04B8               	iorwf	LHalf_NumBuilder@Output,f
  1920     046A                     l1305:
  1921                           
  1922                           ;rendering.c: 167:        Output >>= 1;
  1923     046A  1003               	clrc
  1924     046B  0CB8               	rrf	LHalf_NumBuilder@Output,f
  1925                           
  1926                           ;rendering.c: 168:        Output |= ((Block->GBlock << (character_line)) & 0b10000000);
  1927     046C  0870               	movf	LHalf_NumBuilder@Block,w
  1928     046D  3E06               	addlw	6
  1929     046E  0086               	movwf	6
  1930     046F  0187               	clrf	7
  1931     0470  0801               	movf	1,w
  1932     0471  00F2               	movwf	??_LHalf_NumBuilder
  1933     0472  0A74               	incf	LHalf_NumBuilder@character_line,w
  1934     0473  2C75               	goto	u1674
  1935     0474                     u1675:
  1936     0474  35F2               	lslf	??_LHalf_NumBuilder,f
  1937     0475                     u1674:
  1938     0475  0B89               	decfsz	9,f
  1939     0476  2C74               	goto	u1675
  1940     0477  0872               	movf	??_LHalf_NumBuilder,w
  1941     0478  3980               	andlw	128
  1942     0479  00F3               	movwf	??_LHalf_NumBuilder+1
  1943     047A  0873               	movf	??_LHalf_NumBuilder+1,w
  1944     047B  04B8               	iorwf	LHalf_NumBuilder@Output,f
  1945     047C                     l1307:
  1946                           
  1947                           ;rendering.c: 169:        Output >>= 1;
  1948     047C  1003               	clrc
  1949     047D  0CB8               	rrf	LHalf_NumBuilder@Output,f
  1950     047E                     l1309:
  1951                           
  1952                           ;rendering.c: 170:        Output |= ((Block->FBlock << (character_line)) & 0b10000000);
  1953     047E  0870               	movf	LHalf_NumBuilder@Block,w
  1954     047F  3E05               	addlw	5
  1955     0480  0086               	movwf	6
  1956     0481  0187               	clrf	7
  1957     0482  0801               	movf	1,w
  1958     0483  00F2               	movwf	??_LHalf_NumBuilder
  1959     0484  0A74               	incf	LHalf_NumBuilder@character_line,w
  1960     0485  2C87               	goto	u1684
  1961     0486                     u1685:
  1962     0486  35F2               	lslf	??_LHalf_NumBuilder,f
  1963     0487                     u1684:
  1964     0487  0B89               	decfsz	9,f
  1965     0488  2C86               	goto	u1685
  1966     0489  0872               	movf	??_LHalf_NumBuilder,w
  1967     048A  3980               	andlw	128
  1968     048B  00F3               	movwf	??_LHalf_NumBuilder+1
  1969     048C  0873               	movf	??_LHalf_NumBuilder+1,w
  1970     048D  04B8               	iorwf	LHalf_NumBuilder@Output,f
  1971     048E                     l1311:
  1972                           
  1973                           ;rendering.c: 173:     if(hours == 4){
  1974     048E  3004               	movlw	4
  1975     048F  0671               	xorwf	LHalf_NumBuilder@hours,w
  1976     0490  1D03               	btfss	3,2
  1977     0491  2C93               	goto	u1691
  1978     0492  2C94               	goto	u1690
  1979     0493                     u1691:
  1980     0493  2D21               	goto	l1335
  1981     0494                     u1690:
  1982     0494                     l1313:
  1983                           
  1984                           ;rendering.c: 175:        Output = ((Block->GBlock << (character_line)) & 0b10000000);
  1985     0494  0870               	movf	LHalf_NumBuilder@Block,w
  1986     0495  3E06               	addlw	6
  1987     0496  0086               	movwf	6
  1988     0497  0187               	clrf	7
  1989     0498  0801               	movf	1,w
  1990     0499  00F2               	movwf	??_LHalf_NumBuilder
  1991     049A  0A74               	incf	LHalf_NumBuilder@character_line,w
  1992     049B  2C9D               	goto	u1704
  1993     049C                     u1705:
  1994     049C  35F2               	lslf	??_LHalf_NumBuilder,f
  1995     049D                     u1704:
  1996     049D  0B89               	decfsz	9,f
  1997     049E  2C9C               	goto	u1705
  1998     049F  0872               	movf	??_LHalf_NumBuilder,w
  1999     04A0  3980               	andlw	128
  2000     04A1  0020               	movlb	0	; select bank0
  2001     04A2  00B8               	movwf	LHalf_NumBuilder@Output
  2002     04A3                     l1315:
  2003                           
  2004                           ;rendering.c: 176:        Output >>= 1;
  2005     04A3  1003               	clrc
  2006     04A4  0CB8               	rrf	LHalf_NumBuilder@Output,f
  2007     04A5                     l1317:
  2008                           
  2009                           ;rendering.c: 177:        Output |= ((Block->GBlock << (character_line)) & 0b10000000);
  2010     04A5  0870               	movf	LHalf_NumBuilder@Block,w
  2011     04A6  3E06               	addlw	6
  2012     04A7  0086               	movwf	6
  2013     04A8  0187               	clrf	7
  2014     04A9  0801               	movf	1,w
  2015     04AA  00F2               	movwf	??_LHalf_NumBuilder
  2016     04AB  0A74               	incf	LHalf_NumBuilder@character_line,w
  2017     04AC  2CAE               	goto	u1714
  2018     04AD                     u1715:
  2019     04AD  35F2               	lslf	??_LHalf_NumBuilder,f
  2020     04AE                     u1714:
  2021     04AE  0B89               	decfsz	9,f
  2022     04AF  2CAD               	goto	u1715
  2023     04B0  0872               	movf	??_LHalf_NumBuilder,w
  2024     04B1  3980               	andlw	128
  2025     04B2  00F3               	movwf	??_LHalf_NumBuilder+1
  2026     04B3  0873               	movf	??_LHalf_NumBuilder+1,w
  2027     04B4  04B8               	iorwf	LHalf_NumBuilder@Output,f
  2028                           
  2029                           ;rendering.c: 178:        Output >>= 1;
  2030     04B5  1003               	clrc
  2031     04B6  0CB8               	rrf	LHalf_NumBuilder@Output,f
  2032     04B7                     l1319:
  2033                           
  2034                           ;rendering.c: 179:        Output |= ((Block->GBlock << (character_line)) & 0b10000000);
  2035     04B7  0870               	movf	LHalf_NumBuilder@Block,w
  2036     04B8  3E06               	addlw	6
  2037     04B9  0086               	movwf	6
  2038     04BA  0187               	clrf	7
  2039     04BB  0801               	movf	1,w
  2040     04BC  00F2               	movwf	??_LHalf_NumBuilder
  2041     04BD  0A74               	incf	LHalf_NumBuilder@character_line,w
  2042     04BE  2CC0               	goto	u1724
  2043     04BF                     u1725:
  2044     04BF  35F2               	lslf	??_LHalf_NumBuilder,f
  2045     04C0                     u1724:
  2046     04C0  0B89               	decfsz	9,f
  2047     04C1  2CBF               	goto	u1725
  2048     04C2  0872               	movf	??_LHalf_NumBuilder,w
  2049     04C3  3980               	andlw	128
  2050     04C4  00F3               	movwf	??_LHalf_NumBuilder+1
  2051     04C5  0873               	movf	??_LHalf_NumBuilder+1,w
  2052     04C6  04B8               	iorwf	LHalf_NumBuilder@Output,f
  2053     04C7                     l1321:
  2054                           
  2055                           ;rendering.c: 180:        Output >>= 1;
  2056     04C7  1003               	clrc
  2057     04C8  0CB8               	rrf	LHalf_NumBuilder@Output,f
  2058                           
  2059                           ;rendering.c: 181:        Output |= ((Block->FBlock << (character_line)) & 0b10000000);
  2060     04C9  0870               	movf	LHalf_NumBuilder@Block,w
  2061     04CA  3E05               	addlw	5
  2062     04CB  0086               	movwf	6
  2063     04CC  0187               	clrf	7
  2064     04CD  0801               	movf	1,w
  2065     04CE  00F2               	movwf	??_LHalf_NumBuilder
  2066     04CF  0A74               	incf	LHalf_NumBuilder@character_line,w
  2067     04D0  2CD2               	goto	u1734
  2068     04D1                     u1735:
  2069     04D1  35F2               	lslf	??_LHalf_NumBuilder,f
  2070     04D2                     u1734:
  2071     04D2  0B89               	decfsz	9,f
  2072     04D3  2CD1               	goto	u1735
  2073     04D4  0872               	movf	??_LHalf_NumBuilder,w
  2074     04D5  3980               	andlw	128
  2075     04D6  00F3               	movwf	??_LHalf_NumBuilder+1
  2076     04D7  0873               	movf	??_LHalf_NumBuilder+1,w
  2077     04D8  04B8               	iorwf	LHalf_NumBuilder@Output,f
  2078     04D9                     l1323:
  2079                           
  2080                           ;rendering.c: 182:        Output >>= 1;
  2081     04D9  1003               	clrc
  2082     04DA  0CB8               	rrf	LHalf_NumBuilder@Output,f
  2083     04DB                     l1325:
  2084                           
  2085                           ;rendering.c: 183:        Output |= ((Block->NBlock << (character_line)) & 0b10000000);
  2086     04DB  0870               	movf	LHalf_NumBuilder@Block,w
  2087     04DC  3E0D               	addlw	13
  2088     04DD  0086               	movwf	6
  2089     04DE  0187               	clrf	7
  2090     04DF  0801               	movf	1,w
  2091     04E0  00F2               	movwf	??_LHalf_NumBuilder
  2092     04E1  0A74               	incf	LHalf_NumBuilder@character_line,w
  2093     04E2  2CE4               	goto	u1744
  2094     04E3                     u1745:
  2095     04E3  35F2               	lslf	??_LHalf_NumBuilder,f
  2096     04E4                     u1744:
  2097     04E4  0B89               	decfsz	9,f
  2098     04E5  2CE3               	goto	u1745
  2099     04E6  0872               	movf	??_LHalf_NumBuilder,w
  2100     04E7  3980               	andlw	128
  2101     04E8  00F3               	movwf	??_LHalf_NumBuilder+1
  2102     04E9  0873               	movf	??_LHalf_NumBuilder+1,w
  2103     04EA  04B8               	iorwf	LHalf_NumBuilder@Output,f
  2104                           
  2105                           ;rendering.c: 184:        Output >>= 1;
  2106     04EB  1003               	clrc
  2107     04EC  0CB8               	rrf	LHalf_NumBuilder@Output,f
  2108     04ED                     l1327:
  2109                           
  2110                           ;rendering.c: 185:        Output |= ((Block->MBlock << (character_line)) & 0b10000000);
  2111     04ED  0870               	movf	LHalf_NumBuilder@Block,w
  2112     04EE  3E0C               	addlw	12
  2113     04EF  0086               	movwf	6
  2114     04F0  0187               	clrf	7
  2115     04F1  0801               	movf	1,w
  2116     04F2  00F2               	movwf	??_LHalf_NumBuilder
  2117     04F3  0A74               	incf	LHalf_NumBuilder@character_line,w
  2118     04F4  2CF6               	goto	u1754
  2119     04F5                     u1755:
  2120     04F5  35F2               	lslf	??_LHalf_NumBuilder,f
  2121     04F6                     u1754:
  2122     04F6  0B89               	decfsz	9,f
  2123     04F7  2CF5               	goto	u1755
  2124     04F8  0872               	movf	??_LHalf_NumBuilder,w
  2125     04F9  3980               	andlw	128
  2126     04FA  00F3               	movwf	??_LHalf_NumBuilder+1
  2127     04FB  0873               	movf	??_LHalf_NumBuilder+1,w
  2128     04FC  04B8               	iorwf	LHalf_NumBuilder@Output,f
  2129     04FD                     l1329:
  2130                           
  2131                           ;rendering.c: 186:        Output >>= 1;
  2132     04FD  1003               	clrc
  2133     04FE  0CB8               	rrf	LHalf_NumBuilder@Output,f
  2134                           
  2135                           ;rendering.c: 187:        Output |= ((Block->LBlock << (character_line)) & 0b10000000);
  2136     04FF  0870               	movf	LHalf_NumBuilder@Block,w
  2137     0500  3E0B               	addlw	11
  2138     0501  0086               	movwf	6
  2139     0502  0187               	clrf	7
  2140     0503  0801               	movf	1,w
  2141     0504  00F2               	movwf	??_LHalf_NumBuilder
  2142     0505  0A74               	incf	LHalf_NumBuilder@character_line,w
  2143     0506  2D08               	goto	u1764
  2144     0507                     u1765:
  2145     0507  35F2               	lslf	??_LHalf_NumBuilder,f
  2146     0508                     u1764:
  2147     0508  0B89               	decfsz	9,f
  2148     0509  2D07               	goto	u1765
  2149     050A  0872               	movf	??_LHalf_NumBuilder,w
  2150     050B  3980               	andlw	128
  2151     050C  00F3               	movwf	??_LHalf_NumBuilder+1
  2152     050D  0873               	movf	??_LHalf_NumBuilder+1,w
  2153     050E  04B8               	iorwf	LHalf_NumBuilder@Output,f
  2154     050F                     l1331:
  2155                           
  2156                           ;rendering.c: 188:        Output >>= 1;
  2157     050F  1003               	clrc
  2158     0510  0CB8               	rrf	LHalf_NumBuilder@Output,f
  2159     0511                     l1333:
  2160                           
  2161                           ;rendering.c: 189:        Output |= ((Block->KBlock << (character_line)) & 0b10000000);
  2162     0511  0870               	movf	LHalf_NumBuilder@Block,w
  2163     0512  3E0A               	addlw	10
  2164     0513  0086               	movwf	6
  2165     0514  0187               	clrf	7
  2166     0515  0801               	movf	1,w
  2167     0516  00F2               	movwf	??_LHalf_NumBuilder
  2168     0517  0A74               	incf	LHalf_NumBuilder@character_line,w
  2169     0518  2D1A               	goto	u1774
  2170     0519                     u1775:
  2171     0519  35F2               	lslf	??_LHalf_NumBuilder,f
  2172     051A                     u1774:
  2173     051A  0B89               	decfsz	9,f
  2174     051B  2D19               	goto	u1775
  2175     051C  0872               	movf	??_LHalf_NumBuilder,w
  2176     051D  3980               	andlw	128
  2177     051E  00F3               	movwf	??_LHalf_NumBuilder+1
  2178     051F  0873               	movf	??_LHalf_NumBuilder+1,w
  2179     0520  04B8               	iorwf	LHalf_NumBuilder@Output,f
  2180     0521                     l1335:
  2181                           
  2182                           ;rendering.c: 192:     if(hours == 5){
  2183     0521  3005               	movlw	5
  2184     0522  0671               	xorwf	LHalf_NumBuilder@hours,w
  2185     0523  1D03               	btfss	3,2
  2186     0524  2D26               	goto	u1781
  2187     0525  2D27               	goto	u1780
  2188     0526                     u1781:
  2189     0526  2DB2               	goto	l1359
  2190     0527                     u1780:
  2191     0527                     l1337:
  2192                           
  2193                           ;rendering.c: 194:        Output = ((Block->ABlock << (character_line)) & 0b10000000);
  2194     0527  0870               	movf	LHalf_NumBuilder@Block,w
  2195     0528  0086               	movwf	6
  2196     0529  0187               	clrf	7
  2197     052A  0801               	movf	1,w
  2198     052B  00F2               	movwf	??_LHalf_NumBuilder
  2199     052C  0A74               	incf	LHalf_NumBuilder@character_line,w
  2200     052D  2D2F               	goto	u1794
  2201     052E                     u1795:
  2202     052E  35F2               	lslf	??_LHalf_NumBuilder,f
  2203     052F                     u1794:
  2204     052F  0B89               	decfsz	9,f
  2205     0530  2D2E               	goto	u1795
  2206     0531  0872               	movf	??_LHalf_NumBuilder,w
  2207     0532  3980               	andlw	128
  2208     0533  0020               	movlb	0	; select bank0
  2209     0534  00B8               	movwf	LHalf_NumBuilder@Output
  2210     0535                     l1339:
  2211                           
  2212                           ;rendering.c: 195:        Output >>= 1;
  2213     0535  1003               	clrc
  2214     0536  0CB8               	rrf	LHalf_NumBuilder@Output,f
  2215     0537                     l1341:
  2216                           
  2217                           ;rendering.c: 196:        Output |= ((Block->BBlock << (character_line)) & 0b10000000);
  2218     0537  0A70               	incf	LHalf_NumBuilder@Block,w
  2219     0538  0086               	movwf	6
  2220     0539  0187               	clrf	7
  2221     053A  0801               	movf	1,w
  2222     053B  00F2               	movwf	??_LHalf_NumBuilder
  2223     053C  0A74               	incf	LHalf_NumBuilder@character_line,w
  2224     053D  2D3F               	goto	u1804
  2225     053E                     u1805:
  2226     053E  35F2               	lslf	??_LHalf_NumBuilder,f
  2227     053F                     u1804:
  2228     053F  0B89               	decfsz	9,f
  2229     0540  2D3E               	goto	u1805
  2230     0541  0872               	movf	??_LHalf_NumBuilder,w
  2231     0542  3980               	andlw	128
  2232     0543  00F3               	movwf	??_LHalf_NumBuilder+1
  2233     0544  0873               	movf	??_LHalf_NumBuilder+1,w
  2234     0545  04B8               	iorwf	LHalf_NumBuilder@Output,f
  2235                           
  2236                           ;rendering.c: 197:        Output >>= 1;
  2237     0546  1003               	clrc
  2238     0547  0CB8               	rrf	LHalf_NumBuilder@Output,f
  2239     0548                     l1343:
  2240                           
  2241                           ;rendering.c: 198:        Output |= ((Block->JBlock << (character_line)) & 0b10000000);
  2242     0548  0870               	movf	LHalf_NumBuilder@Block,w
  2243     0549  3E09               	addlw	9
  2244     054A  0086               	movwf	6
  2245     054B  0187               	clrf	7
  2246     054C  0801               	movf	1,w
  2247     054D  00F2               	movwf	??_LHalf_NumBuilder
  2248     054E  0A74               	incf	LHalf_NumBuilder@character_line,w
  2249     054F  2D51               	goto	u1814
  2250     0550                     u1815:
  2251     0550  35F2               	lslf	??_LHalf_NumBuilder,f
  2252     0551                     u1814:
  2253     0551  0B89               	decfsz	9,f
  2254     0552  2D50               	goto	u1815
  2255     0553  0872               	movf	??_LHalf_NumBuilder,w
  2256     0554  3980               	andlw	128
  2257     0555  00F3               	movwf	??_LHalf_NumBuilder+1
  2258     0556  0873               	movf	??_LHalf_NumBuilder+1,w
  2259     0557  04B8               	iorwf	LHalf_NumBuilder@Output,f
  2260     0558                     l1345:
  2261                           
  2262                           ;rendering.c: 199:        Output >>= 1;
  2263     0558  1003               	clrc
  2264     0559  0CB8               	rrf	LHalf_NumBuilder@Output,f
  2265                           
  2266                           ;rendering.c: 200:        Output |= ((Block->JBlock << (character_line)) & 0b10000000);
  2267     055A  0870               	movf	LHalf_NumBuilder@Block,w
  2268     055B  3E09               	addlw	9
  2269     055C  0086               	movwf	6
  2270     055D  0187               	clrf	7
  2271     055E  0801               	movf	1,w
  2272     055F  00F2               	movwf	??_LHalf_NumBuilder
  2273     0560  0A74               	incf	LHalf_NumBuilder@character_line,w
  2274     0561  2D63               	goto	u1824
  2275     0562                     u1825:
  2276     0562  35F2               	lslf	??_LHalf_NumBuilder,f
  2277     0563                     u1824:
  2278     0563  0B89               	decfsz	9,f
  2279     0564  2D62               	goto	u1825
  2280     0565  0872               	movf	??_LHalf_NumBuilder,w
  2281     0566  3980               	andlw	128
  2282     0567  00F3               	movwf	??_LHalf_NumBuilder+1
  2283     0568  0873               	movf	??_LHalf_NumBuilder+1,w
  2284     0569  04B8               	iorwf	LHalf_NumBuilder@Output,f
  2285     056A                     l1347:
  2286                           
  2287                           ;rendering.c: 201:        Output >>= 1;
  2288     056A  1003               	clrc
  2289     056B  0CB8               	rrf	LHalf_NumBuilder@Output,f
  2290     056C                     l1349:
  2291                           
  2292                           ;rendering.c: 202:        Output |= ((Block->OBlock << (character_line)) & 0b10000000);
  2293     056C  0870               	movf	LHalf_NumBuilder@Block,w
  2294     056D  3E0E               	addlw	14
  2295     056E  0086               	movwf	6
  2296     056F  0187               	clrf	7
  2297     0570  0801               	movf	1,w
  2298     0571  00F2               	movwf	??_LHalf_NumBuilder
  2299     0572  0A74               	incf	LHalf_NumBuilder@character_line,w
  2300     0573  2D75               	goto	u1834
  2301     0574                     u1835:
  2302     0574  35F2               	lslf	??_LHalf_NumBuilder,f
  2303     0575                     u1834:
  2304     0575  0B89               	decfsz	9,f
  2305     0576  2D74               	goto	u1835
  2306     0577  0872               	movf	??_LHalf_NumBuilder,w
  2307     0578  3980               	andlw	128
  2308     0579  00F3               	movwf	??_LHalf_NumBuilder+1
  2309     057A  0873               	movf	??_LHalf_NumBuilder+1,w
  2310     057B  04B8               	iorwf	LHalf_NumBuilder@Output,f
  2311                           
  2312                           ;rendering.c: 203:        Output >>= 1;
  2313     057C  1003               	clrc
  2314     057D  0CB8               	rrf	LHalf_NumBuilder@Output,f
  2315     057E                     l1351:
  2316                           
  2317                           ;rendering.c: 204:        Output |= ((Block->HBlock << (character_line)) & 0b10000000);
  2318     057E  0870               	movf	LHalf_NumBuilder@Block,w
  2319     057F  3E07               	addlw	7
  2320     0580  0086               	movwf	6
  2321     0581  0187               	clrf	7
  2322     0582  0801               	movf	1,w
  2323     0583  00F2               	movwf	??_LHalf_NumBuilder
  2324     0584  0A74               	incf	LHalf_NumBuilder@character_line,w
  2325     0585  2D87               	goto	u1844
  2326     0586                     u1845:
  2327     0586  35F2               	lslf	??_LHalf_NumBuilder,f
  2328     0587                     u1844:
  2329     0587  0B89               	decfsz	9,f
  2330     0588  2D86               	goto	u1845
  2331     0589  0872               	movf	??_LHalf_NumBuilder,w
  2332     058A  3980               	andlw	128
  2333     058B  00F3               	movwf	??_LHalf_NumBuilder+1
  2334     058C  0873               	movf	??_LHalf_NumBuilder+1,w
  2335     058D  04B8               	iorwf	LHalf_NumBuilder@Output,f
  2336     058E                     l1353:
  2337                           
  2338                           ;rendering.c: 205:        Output >>= 1;
  2339     058E  1003               	clrc
  2340     058F  0CB8               	rrf	LHalf_NumBuilder@Output,f
  2341                           
  2342                           ;rendering.c: 206:        Output |= ((Block->HBlock << (character_line)) & 0b10000000);
  2343     0590  0870               	movf	LHalf_NumBuilder@Block,w
  2344     0591  3E07               	addlw	7
  2345     0592  0086               	movwf	6
  2346     0593  0187               	clrf	7
  2347     0594  0801               	movf	1,w
  2348     0595  00F2               	movwf	??_LHalf_NumBuilder
  2349     0596  0A74               	incf	LHalf_NumBuilder@character_line,w
  2350     0597  2D99               	goto	u1854
  2351     0598                     u1855:
  2352     0598  35F2               	lslf	??_LHalf_NumBuilder,f
  2353     0599                     u1854:
  2354     0599  0B89               	decfsz	9,f
  2355     059A  2D98               	goto	u1855
  2356     059B  0872               	movf	??_LHalf_NumBuilder,w
  2357     059C  3980               	andlw	128
  2358     059D  00F3               	movwf	??_LHalf_NumBuilder+1
  2359     059E  0873               	movf	??_LHalf_NumBuilder+1,w
  2360     059F  04B8               	iorwf	LHalf_NumBuilder@Output,f
  2361     05A0                     l1355:
  2362                           
  2363                           ;rendering.c: 207:        Output >>= 1;
  2364     05A0  1003               	clrc
  2365     05A1  0CB8               	rrf	LHalf_NumBuilder@Output,f
  2366     05A2                     l1357:
  2367                           
  2368                           ;rendering.c: 208:        Output |= ((Block->FBlock << (character_line)) & 0b10000000);
  2369     05A2  0870               	movf	LHalf_NumBuilder@Block,w
  2370     05A3  3E05               	addlw	5
  2371     05A4  0086               	movwf	6
  2372     05A5  0187               	clrf	7
  2373     05A6  0801               	movf	1,w
  2374     05A7  00F2               	movwf	??_LHalf_NumBuilder
  2375     05A8  0A74               	incf	LHalf_NumBuilder@character_line,w
  2376     05A9  2DAB               	goto	u1864
  2377     05AA                     u1865:
  2378     05AA  35F2               	lslf	??_LHalf_NumBuilder,f
  2379     05AB                     u1864:
  2380     05AB  0B89               	decfsz	9,f
  2381     05AC  2DAA               	goto	u1865
  2382     05AD  0872               	movf	??_LHalf_NumBuilder,w
  2383     05AE  3980               	andlw	128
  2384     05AF  00F3               	movwf	??_LHalf_NumBuilder+1
  2385     05B0  0873               	movf	??_LHalf_NumBuilder+1,w
  2386     05B1  04B8               	iorwf	LHalf_NumBuilder@Output,f
  2387     05B2                     l1359:
  2388                           
  2389                           ;rendering.c: 211:     if(hours == 6){
  2390     05B2  3006               	movlw	6
  2391     05B3  0671               	xorwf	LHalf_NumBuilder@hours,w
  2392     05B4  1D03               	btfss	3,2
  2393     05B5  2DB7               	goto	u1871
  2394     05B6  2DB8               	goto	u1870
  2395     05B7                     u1871:
  2396     05B7  2E40               	goto	l1383
  2397     05B8                     u1870:
  2398     05B8                     l1361:
  2399                           
  2400                           ;rendering.c: 213:        Output = ((Block->ABlock << (character_line)) & 0b10000000);
  2401     05B8  0870               	movf	LHalf_NumBuilder@Block,w
  2402     05B9  0086               	movwf	6
  2403     05BA  0187               	clrf	7
  2404     05BB  0801               	movf	1,w
  2405     05BC  00F2               	movwf	??_LHalf_NumBuilder
  2406     05BD  0A74               	incf	LHalf_NumBuilder@character_line,w
  2407     05BE  2DC0               	goto	u1884
  2408     05BF                     u1885:
  2409     05BF  35F2               	lslf	??_LHalf_NumBuilder,f
  2410     05C0                     u1884:
  2411     05C0  0B89               	decfsz	9,f
  2412     05C1  2DBF               	goto	u1885
  2413     05C2  0872               	movf	??_LHalf_NumBuilder,w
  2414     05C3  3980               	andlw	128
  2415     05C4  0020               	movlb	0	; select bank0
  2416     05C5  00B8               	movwf	LHalf_NumBuilder@Output
  2417     05C6                     l1363:
  2418                           
  2419                           ;rendering.c: 214:        Output >>= 1;
  2420     05C6  1003               	clrc
  2421     05C7  0CB8               	rrf	LHalf_NumBuilder@Output,f
  2422     05C8                     l1365:
  2423                           
  2424                           ;rendering.c: 215:        Output |= ((Block->BBlock << (character_line)) & 0b10000000);
  2425     05C8  0A70               	incf	LHalf_NumBuilder@Block,w
  2426     05C9  0086               	movwf	6
  2427     05CA  0187               	clrf	7
  2428     05CB  0801               	movf	1,w
  2429     05CC  00F2               	movwf	??_LHalf_NumBuilder
  2430     05CD  0A74               	incf	LHalf_NumBuilder@character_line,w
  2431     05CE  2DD0               	goto	u1894
  2432     05CF                     u1895:
  2433     05CF  35F2               	lslf	??_LHalf_NumBuilder,f
  2434     05D0                     u1894:
  2435     05D0  0B89               	decfsz	9,f
  2436     05D1  2DCF               	goto	u1895
  2437     05D2  0872               	movf	??_LHalf_NumBuilder,w
  2438     05D3  3980               	andlw	128
  2439     05D4  00F3               	movwf	??_LHalf_NumBuilder+1
  2440     05D5  0873               	movf	??_LHalf_NumBuilder+1,w
  2441     05D6  04B8               	iorwf	LHalf_NumBuilder@Output,f
  2442                           
  2443                           ;rendering.c: 216:        Output >>= 1;
  2444     05D7  1003               	clrc
  2445     05D8  0CB8               	rrf	LHalf_NumBuilder@Output,f
  2446     05D9                     l1367:
  2447                           
  2448                           ;rendering.c: 217:        Output |= ((Block->BBlock << (character_line)) & 0b10000000);
  2449     05D9  0A70               	incf	LHalf_NumBuilder@Block,w
  2450     05DA  0086               	movwf	6
  2451     05DB  0187               	clrf	7
  2452     05DC  0801               	movf	1,w
  2453     05DD  00F2               	movwf	??_LHalf_NumBuilder
  2454     05DE  0A74               	incf	LHalf_NumBuilder@character_line,w
  2455     05DF  2DE1               	goto	u1904
  2456     05E0                     u1905:
  2457     05E0  35F2               	lslf	??_LHalf_NumBuilder,f
  2458     05E1                     u1904:
  2459     05E1  0B89               	decfsz	9,f
  2460     05E2  2DE0               	goto	u1905
  2461     05E3  0872               	movf	??_LHalf_NumBuilder,w
  2462     05E4  3980               	andlw	128
  2463     05E5  00F3               	movwf	??_LHalf_NumBuilder+1
  2464     05E6  0873               	movf	??_LHalf_NumBuilder+1,w
  2465     05E7  04B8               	iorwf	LHalf_NumBuilder@Output,f
  2466     05E8                     l1369:
  2467                           
  2468                           ;rendering.c: 218:        Output >>= 1;
  2469     05E8  1003               	clrc
  2470     05E9  0CB8               	rrf	LHalf_NumBuilder@Output,f
  2471                           
  2472                           ;rendering.c: 219:        Output |= ((Block->QBlock << (character_line)) & 0b10000000);
  2473     05EA  0870               	movf	LHalf_NumBuilder@Block,w
  2474     05EB  3E10               	addlw	16
  2475     05EC  0086               	movwf	6
  2476     05ED  0187               	clrf	7
  2477     05EE  0801               	movf	1,w
  2478     05EF  00F2               	movwf	??_LHalf_NumBuilder
  2479     05F0  0A74               	incf	LHalf_NumBuilder@character_line,w
  2480     05F1  2DF3               	goto	u1914
  2481     05F2                     u1915:
  2482     05F2  35F2               	lslf	??_LHalf_NumBuilder,f
  2483     05F3                     u1914:
  2484     05F3  0B89               	decfsz	9,f
  2485     05F4  2DF2               	goto	u1915
  2486     05F5  0872               	movf	??_LHalf_NumBuilder,w
  2487     05F6  3980               	andlw	128
  2488     05F7  00F3               	movwf	??_LHalf_NumBuilder+1
  2489     05F8  0873               	movf	??_LHalf_NumBuilder+1,w
  2490     05F9  04B8               	iorwf	LHalf_NumBuilder@Output,f
  2491     05FA                     l1371:
  2492                           
  2493                           ;rendering.c: 220:        Output >>= 1;
  2494     05FA  1003               	clrc
  2495     05FB  0CB8               	rrf	LHalf_NumBuilder@Output,f
  2496     05FC                     l1373:
  2497                           
  2498                           ;rendering.c: 221:        Output |= ((Block->PBlock << (character_line)) & 0b10000000);
  2499     05FC  0870               	movf	LHalf_NumBuilder@Block,w
  2500     05FD  3E0F               	addlw	15
  2501     05FE  0086               	movwf	6
  2502     05FF  0187               	clrf	7
  2503     0600  0801               	movf	1,w
  2504     0601  00F2               	movwf	??_LHalf_NumBuilder
  2505     0602  0A74               	incf	LHalf_NumBuilder@character_line,w
  2506     0603  2E05               	goto	u1924
  2507     0604                     u1925:
  2508     0604  35F2               	lslf	??_LHalf_NumBuilder,f
  2509     0605                     u1924:
  2510     0605  0B89               	decfsz	9,f
  2511     0606  2E04               	goto	u1925
  2512     0607  0872               	movf	??_LHalf_NumBuilder,w
  2513     0608  3980               	andlw	128
  2514     0609  00F3               	movwf	??_LHalf_NumBuilder+1
  2515     060A  0873               	movf	??_LHalf_NumBuilder+1,w
  2516     060B  04B8               	iorwf	LHalf_NumBuilder@Output,f
  2517                           
  2518                           ;rendering.c: 222:        Output >>= 1;
  2519     060C  1003               	clrc
  2520     060D  0CB8               	rrf	LHalf_NumBuilder@Output,f
  2521     060E                     l1375:
  2522                           
  2523                           ;rendering.c: 223:        Output |= ((Block->HBlock << (character_line)) & 0b10000000);
  2524     060E  0870               	movf	LHalf_NumBuilder@Block,w
  2525     060F  3E07               	addlw	7
  2526     0610  0086               	movwf	6
  2527     0611  0187               	clrf	7
  2528     0612  0801               	movf	1,w
  2529     0613  00F2               	movwf	??_LHalf_NumBuilder
  2530     0614  0A74               	incf	LHalf_NumBuilder@character_line,w
  2531     0615  2E17               	goto	u1934
  2532     0616                     u1935:
  2533     0616  35F2               	lslf	??_LHalf_NumBuilder,f
  2534     0617                     u1934:
  2535     0617  0B89               	decfsz	9,f
  2536     0618  2E16               	goto	u1935
  2537     0619  0872               	movf	??_LHalf_NumBuilder,w
  2538     061A  3980               	andlw	128
  2539     061B  00F3               	movwf	??_LHalf_NumBuilder+1
  2540     061C  0873               	movf	??_LHalf_NumBuilder+1,w
  2541     061D  04B8               	iorwf	LHalf_NumBuilder@Output,f
  2542     061E                     l1377:
  2543                           
  2544                           ;rendering.c: 224:        Output >>= 1;
  2545     061E  1003               	clrc
  2546     061F  0CB8               	rrf	LHalf_NumBuilder@Output,f
  2547                           
  2548                           ;rendering.c: 225:        Output |= ((Block->BBlock << (character_line)) & 0b10000000);
  2549     0620  0A70               	incf	LHalf_NumBuilder@Block,w
  2550     0621  0086               	movwf	6
  2551     0622  0187               	clrf	7
  2552     0623  0801               	movf	1,w
  2553     0624  00F2               	movwf	??_LHalf_NumBuilder
  2554     0625  0A74               	incf	LHalf_NumBuilder@character_line,w
  2555     0626  2E28               	goto	u1944
  2556     0627                     u1945:
  2557     0627  35F2               	lslf	??_LHalf_NumBuilder,f
  2558     0628                     u1944:
  2559     0628  0B89               	decfsz	9,f
  2560     0629  2E27               	goto	u1945
  2561     062A  0872               	movf	??_LHalf_NumBuilder,w
  2562     062B  3980               	andlw	128
  2563     062C  00F3               	movwf	??_LHalf_NumBuilder+1
  2564     062D  0873               	movf	??_LHalf_NumBuilder+1,w
  2565     062E  04B8               	iorwf	LHalf_NumBuilder@Output,f
  2566     062F                     l1379:
  2567                           
  2568                           ;rendering.c: 226:        Output >>= 1;
  2569     062F  1003               	clrc
  2570     0630  0CB8               	rrf	LHalf_NumBuilder@Output,f
  2571     0631                     l1381:
  2572                           
  2573                           ;rendering.c: 227:        Output |= ((Block->ABlock << (character_line)) & 0b10000000);
  2574     0631  0870               	movf	LHalf_NumBuilder@Block,w
  2575     0632  0086               	movwf	6
  2576     0633  0187               	clrf	7
  2577     0634  0801               	movf	1,w
  2578     0635  00F2               	movwf	??_LHalf_NumBuilder
  2579     0636  0A74               	incf	LHalf_NumBuilder@character_line,w
  2580     0637  2E39               	goto	u1954
  2581     0638                     u1955:
  2582     0638  35F2               	lslf	??_LHalf_NumBuilder,f
  2583     0639                     u1954:
  2584     0639  0B89               	decfsz	9,f
  2585     063A  2E38               	goto	u1955
  2586     063B  0872               	movf	??_LHalf_NumBuilder,w
  2587     063C  3980               	andlw	128
  2588     063D  00F3               	movwf	??_LHalf_NumBuilder+1
  2589     063E  0873               	movf	??_LHalf_NumBuilder+1,w
  2590     063F  04B8               	iorwf	LHalf_NumBuilder@Output,f
  2591     0640                     l1383:
  2592                           
  2593                           ;rendering.c: 230:     if(hours == 7){
  2594     0640  3007               	movlw	7
  2595     0641  0671               	xorwf	LHalf_NumBuilder@hours,w
  2596     0642  1D03               	btfss	3,2
  2597     0643  2E45               	goto	u1961
  2598     0644  2E46               	goto	u1960
  2599     0645                     u1961:
  2600     0645  2ED3               	goto	l1407
  2601     0646                     u1960:
  2602     0646                     l1385:
  2603                           
  2604                           ;rendering.c: 232:        Output = ((Block->HBlock << (character_line)) & 0b10000000);
  2605     0646  0870               	movf	LHalf_NumBuilder@Block,w
  2606     0647  3E07               	addlw	7
  2607     0648  0086               	movwf	6
  2608     0649  0187               	clrf	7
  2609     064A  0801               	movf	1,w
  2610     064B  00F2               	movwf	??_LHalf_NumBuilder
  2611     064C  0A74               	incf	LHalf_NumBuilder@character_line,w
  2612     064D  2E4F               	goto	u1974
  2613     064E                     u1975:
  2614     064E  35F2               	lslf	??_LHalf_NumBuilder,f
  2615     064F                     u1974:
  2616     064F  0B89               	decfsz	9,f
  2617     0650  2E4E               	goto	u1975
  2618     0651  0872               	movf	??_LHalf_NumBuilder,w
  2619     0652  3980               	andlw	128
  2620     0653  0020               	movlb	0	; select bank0
  2621     0654  00B8               	movwf	LHalf_NumBuilder@Output
  2622     0655                     l1387:
  2623                           
  2624                           ;rendering.c: 233:        Output >>= 1;
  2625     0655  1003               	clrc
  2626     0656  0CB8               	rrf	LHalf_NumBuilder@Output,f
  2627     0657                     l1389:
  2628                           
  2629                           ;rendering.c: 234:        Output |= ((Block->HBlock << (character_line)) & 0b10000000);
  2630     0657  0870               	movf	LHalf_NumBuilder@Block,w
  2631     0658  3E07               	addlw	7
  2632     0659  0086               	movwf	6
  2633     065A  0187               	clrf	7
  2634     065B  0801               	movf	1,w
  2635     065C  00F2               	movwf	??_LHalf_NumBuilder
  2636     065D  0A74               	incf	LHalf_NumBuilder@character_line,w
  2637     065E  2E60               	goto	u1984
  2638     065F                     u1985:
  2639     065F  35F2               	lslf	??_LHalf_NumBuilder,f
  2640     0660                     u1984:
  2641     0660  0B89               	decfsz	9,f
  2642     0661  2E5F               	goto	u1985
  2643     0662  0872               	movf	??_LHalf_NumBuilder,w
  2644     0663  3980               	andlw	128
  2645     0664  00F3               	movwf	??_LHalf_NumBuilder+1
  2646     0665  0873               	movf	??_LHalf_NumBuilder+1,w
  2647     0666  04B8               	iorwf	LHalf_NumBuilder@Output,f
  2648                           
  2649                           ;rendering.c: 235:        Output >>= 1;
  2650     0667  1003               	clrc
  2651     0668  0CB8               	rrf	LHalf_NumBuilder@Output,f
  2652     0669                     l1391:
  2653                           
  2654                           ;rendering.c: 236:        Output |= ((Block->SBlock << (character_line)) & 0b10000000);
  2655     0669  0870               	movf	LHalf_NumBuilder@Block,w
  2656     066A  3E12               	addlw	18
  2657     066B  0086               	movwf	6
  2658     066C  0187               	clrf	7
  2659     066D  0801               	movf	1,w
  2660     066E  00F2               	movwf	??_LHalf_NumBuilder
  2661     066F  0A74               	incf	LHalf_NumBuilder@character_line,w
  2662     0670  2E72               	goto	u1994
  2663     0671                     u1995:
  2664     0671  35F2               	lslf	??_LHalf_NumBuilder,f
  2665     0672                     u1994:
  2666     0672  0B89               	decfsz	9,f
  2667     0673  2E71               	goto	u1995
  2668     0674  0872               	movf	??_LHalf_NumBuilder,w
  2669     0675  3980               	andlw	128
  2670     0676  00F3               	movwf	??_LHalf_NumBuilder+1
  2671     0677  0873               	movf	??_LHalf_NumBuilder+1,w
  2672     0678  04B8               	iorwf	LHalf_NumBuilder@Output,f
  2673     0679                     l1393:
  2674                           
  2675                           ;rendering.c: 237:        Output >>= 1;
  2676     0679  1003               	clrc
  2677     067A  0CB8               	rrf	LHalf_NumBuilder@Output,f
  2678                           
  2679                           ;rendering.c: 238:        Output |= ((Block->RBlock << (character_line)) & 0b10000000);
  2680     067B  0870               	movf	LHalf_NumBuilder@Block,w
  2681     067C  3E11               	addlw	17
  2682     067D  0086               	movwf	6
  2683     067E  0187               	clrf	7
  2684     067F  0801               	movf	1,w
  2685     0680  00F2               	movwf	??_LHalf_NumBuilder
  2686     0681  0A74               	incf	LHalf_NumBuilder@character_line,w
  2687     0682  2E84               	goto	u2004
  2688     0683                     u2005:
  2689     0683  35F2               	lslf	??_LHalf_NumBuilder,f
  2690     0684                     u2004:
  2691     0684  0B89               	decfsz	9,f
  2692     0685  2E83               	goto	u2005
  2693     0686  0872               	movf	??_LHalf_NumBuilder,w
  2694     0687  3980               	andlw	128
  2695     0688  00F3               	movwf	??_LHalf_NumBuilder+1
  2696     0689  0873               	movf	??_LHalf_NumBuilder+1,w
  2697     068A  04B8               	iorwf	LHalf_NumBuilder@Output,f
  2698     068B                     l1395:
  2699                           
  2700                           ;rendering.c: 239:        Output >>= 1;
  2701     068B  1003               	clrc
  2702     068C  0CB8               	rrf	LHalf_NumBuilder@Output,f
  2703     068D                     l1397:
  2704                           
  2705                           ;rendering.c: 240:        Output |= ((Block->CBlock << (character_line)) & 0b10000000);
  2706     068D  0870               	movf	LHalf_NumBuilder@Block,w
  2707     068E  3E02               	addlw	2
  2708     068F  0086               	movwf	6
  2709     0690  0187               	clrf	7
  2710     0691  0801               	movf	1,w
  2711     0692  00F2               	movwf	??_LHalf_NumBuilder
  2712     0693  0A74               	incf	LHalf_NumBuilder@character_line,w
  2713     0694  2E96               	goto	u2014
  2714     0695                     u2015:
  2715     0695  35F2               	lslf	??_LHalf_NumBuilder,f
  2716     0696                     u2014:
  2717     0696  0B89               	decfsz	9,f
  2718     0697  2E95               	goto	u2015
  2719     0698  0872               	movf	??_LHalf_NumBuilder,w
  2720     0699  3980               	andlw	128
  2721     069A  00F3               	movwf	??_LHalf_NumBuilder+1
  2722     069B  0873               	movf	??_LHalf_NumBuilder+1,w
  2723     069C  04B8               	iorwf	LHalf_NumBuilder@Output,f
  2724                           
  2725                           ;rendering.c: 241:        Output >>= 1;
  2726     069D  1003               	clrc
  2727     069E  0CB8               	rrf	LHalf_NumBuilder@Output,f
  2728     069F                     l1399:
  2729                           
  2730                           ;rendering.c: 242:        Output |= ((Block->GBlock << (character_line)) & 0b10000000);
  2731     069F  0870               	movf	LHalf_NumBuilder@Block,w
  2732     06A0  3E06               	addlw	6
  2733     06A1  0086               	movwf	6
  2734     06A2  0187               	clrf	7
  2735     06A3  0801               	movf	1,w
  2736     06A4  00F2               	movwf	??_LHalf_NumBuilder
  2737     06A5  0A74               	incf	LHalf_NumBuilder@character_line,w
  2738     06A6  2EA8               	goto	u2024
  2739     06A7                     u2025:
  2740     06A7  35F2               	lslf	??_LHalf_NumBuilder,f
  2741     06A8                     u2024:
  2742     06A8  0B89               	decfsz	9,f
  2743     06A9  2EA7               	goto	u2025
  2744     06AA  0872               	movf	??_LHalf_NumBuilder,w
  2745     06AB  3980               	andlw	128
  2746     06AC  00F3               	movwf	??_LHalf_NumBuilder+1
  2747     06AD  0873               	movf	??_LHalf_NumBuilder+1,w
  2748     06AE  04B8               	iorwf	LHalf_NumBuilder@Output,f
  2749     06AF                     l1401:
  2750                           
  2751                           ;rendering.c: 243:        Output >>= 1;
  2752     06AF  1003               	clrc
  2753     06B0  0CB8               	rrf	LHalf_NumBuilder@Output,f
  2754                           
  2755                           ;rendering.c: 244:        Output |= ((Block->JBlock << (character_line)) & 0b10000000);
  2756     06B1  0870               	movf	LHalf_NumBuilder@Block,w
  2757     06B2  3E09               	addlw	9
  2758     06B3  0086               	movwf	6
  2759     06B4  0187               	clrf	7
  2760     06B5  0801               	movf	1,w
  2761     06B6  00F2               	movwf	??_LHalf_NumBuilder
  2762     06B7  0A74               	incf	LHalf_NumBuilder@character_line,w
  2763     06B8  2EBA               	goto	u2034
  2764     06B9                     u2035:
  2765     06B9  35F2               	lslf	??_LHalf_NumBuilder,f
  2766     06BA                     u2034:
  2767     06BA  0B89               	decfsz	9,f
  2768     06BB  2EB9               	goto	u2035
  2769     06BC  0872               	movf	??_LHalf_NumBuilder,w
  2770     06BD  3980               	andlw	128
  2771     06BE  00F3               	movwf	??_LHalf_NumBuilder+1
  2772     06BF  0873               	movf	??_LHalf_NumBuilder+1,w
  2773     06C0  04B8               	iorwf	LHalf_NumBuilder@Output,f
  2774     06C1                     l1403:
  2775                           
  2776                           ;rendering.c: 245:        Output >>= 1;
  2777     06C1  1003               	clrc
  2778     06C2  0CB8               	rrf	LHalf_NumBuilder@Output,f
  2779     06C3                     l1405:
  2780                           
  2781                           ;rendering.c: 246:        Output |= ((Block->FBlock << (character_line)) & 0b10000000);
  2782     06C3  0870               	movf	LHalf_NumBuilder@Block,w
  2783     06C4  3E05               	addlw	5
  2784     06C5  0086               	movwf	6
  2785     06C6  0187               	clrf	7
  2786     06C7  0801               	movf	1,w
  2787     06C8  00F2               	movwf	??_LHalf_NumBuilder
  2788     06C9  0A74               	incf	LHalf_NumBuilder@character_line,w
  2789     06CA  2ECC               	goto	u2044
  2790     06CB                     u2045:
  2791     06CB  35F2               	lslf	??_LHalf_NumBuilder,f
  2792     06CC                     u2044:
  2793     06CC  0B89               	decfsz	9,f
  2794     06CD  2ECB               	goto	u2045
  2795     06CE  0872               	movf	??_LHalf_NumBuilder,w
  2796     06CF  3980               	andlw	128
  2797     06D0  00F3               	movwf	??_LHalf_NumBuilder+1
  2798     06D1  0873               	movf	??_LHalf_NumBuilder+1,w
  2799     06D2  04B8               	iorwf	LHalf_NumBuilder@Output,f
  2800     06D3                     l1407:
  2801                           
  2802                           ;rendering.c: 249:     if(hours == 8){
  2803     06D3  3008               	movlw	8
  2804     06D4  0671               	xorwf	LHalf_NumBuilder@hours,w
  2805     06D5  1D03               	btfss	3,2
  2806     06D6  2ED8               	goto	u2051
  2807     06D7  2ED9               	goto	u2050
  2808     06D8                     u2051:
  2809     06D8  2F5E               	goto	l1431
  2810     06D9                     u2050:
  2811     06D9                     l1409:
  2812                           
  2813                           ;rendering.c: 251:        Output = ((Block->ABlock << (character_line)) & 0b10000000);
  2814     06D9  0870               	movf	LHalf_NumBuilder@Block,w
  2815     06DA  0086               	movwf	6
  2816     06DB  0187               	clrf	7
  2817     06DC  0801               	movf	1,w
  2818     06DD  00F2               	movwf	??_LHalf_NumBuilder
  2819     06DE  0A74               	incf	LHalf_NumBuilder@character_line,w
  2820     06DF  2EE1               	goto	u2064
  2821     06E0                     u2065:
  2822     06E0  35F2               	lslf	??_LHalf_NumBuilder,f
  2823     06E1                     u2064:
  2824     06E1  0B89               	decfsz	9,f
  2825     06E2  2EE0               	goto	u2065
  2826     06E3  0872               	movf	??_LHalf_NumBuilder,w
  2827     06E4  3980               	andlw	128
  2828     06E5  0020               	movlb	0	; select bank0
  2829     06E6  00B8               	movwf	LHalf_NumBuilder@Output
  2830     06E7                     l1411:
  2831                           
  2832                           ;rendering.c: 252:        Output >>= 1;
  2833     06E7  1003               	clrc
  2834     06E8  0CB8               	rrf	LHalf_NumBuilder@Output,f
  2835     06E9                     l1413:
  2836                           
  2837                           ;rendering.c: 253:        Output |= ((Block->BBlock << (character_line)) & 0b10000000);
  2838     06E9  0A70               	incf	LHalf_NumBuilder@Block,w
  2839     06EA  0086               	movwf	6
  2840     06EB  0187               	clrf	7
  2841     06EC  0801               	movf	1,w
  2842     06ED  00F2               	movwf	??_LHalf_NumBuilder
  2843     06EE  0A74               	incf	LHalf_NumBuilder@character_line,w
  2844     06EF  2EF1               	goto	u2074
  2845     06F0                     u2075:
  2846     06F0  35F2               	lslf	??_LHalf_NumBuilder,f
  2847     06F1                     u2074:
  2848     06F1  0B89               	decfsz	9,f
  2849     06F2  2EF0               	goto	u2075
  2850     06F3  0872               	movf	??_LHalf_NumBuilder,w
  2851     06F4  3980               	andlw	128
  2852     06F5  00F3               	movwf	??_LHalf_NumBuilder+1
  2853     06F6  0873               	movf	??_LHalf_NumBuilder+1,w
  2854     06F7  04B8               	iorwf	LHalf_NumBuilder@Output,f
  2855                           
  2856                           ;rendering.c: 254:        Output >>= 1;
  2857     06F8  1003               	clrc
  2858     06F9  0CB8               	rrf	LHalf_NumBuilder@Output,f
  2859     06FA                     l1415:
  2860                           
  2861                           ;rendering.c: 255:        Output |= ((Block->BBlock << (character_line)) & 0b10000000);
  2862     06FA  0A70               	incf	LHalf_NumBuilder@Block,w
  2863     06FB  0086               	movwf	6
  2864     06FC  0187               	clrf	7
  2865     06FD  0801               	movf	1,w
  2866     06FE  00F2               	movwf	??_LHalf_NumBuilder
  2867     06FF  0A74               	incf	LHalf_NumBuilder@character_line,w
  2868     0700  2F02               	goto	u2084
  2869     0701                     u2085:
  2870     0701  35F2               	lslf	??_LHalf_NumBuilder,f
  2871     0702                     u2084:
  2872     0702  0B89               	decfsz	9,f
  2873     0703  2F01               	goto	u2085
  2874     0704  0872               	movf	??_LHalf_NumBuilder,w
  2875     0705  3980               	andlw	128
  2876     0706  00F3               	movwf	??_LHalf_NumBuilder+1
  2877     0707  0873               	movf	??_LHalf_NumBuilder+1,w
  2878     0708  04B8               	iorwf	LHalf_NumBuilder@Output,f
  2879     0709                     l1417:
  2880                           
  2881                           ;rendering.c: 256:        Output >>= 1;
  2882     0709  1003               	clrc
  2883     070A  0CB8               	rrf	LHalf_NumBuilder@Output,f
  2884                           
  2885                           ;rendering.c: 257:        Output |= ((Block->BBlock << (character_line)) & 0b10000000);
  2886     070B  0A70               	incf	LHalf_NumBuilder@Block,w
  2887     070C  0086               	movwf	6
  2888     070D  0187               	clrf	7
  2889     070E  0801               	movf	1,w
  2890     070F  00F2               	movwf	??_LHalf_NumBuilder
  2891     0710  0A74               	incf	LHalf_NumBuilder@character_line,w
  2892     0711  2F13               	goto	u2094
  2893     0712                     u2095:
  2894     0712  35F2               	lslf	??_LHalf_NumBuilder,f
  2895     0713                     u2094:
  2896     0713  0B89               	decfsz	9,f
  2897     0714  2F12               	goto	u2095
  2898     0715  0872               	movf	??_LHalf_NumBuilder,w
  2899     0716  3980               	andlw	128
  2900     0717  00F3               	movwf	??_LHalf_NumBuilder+1
  2901     0718  0873               	movf	??_LHalf_NumBuilder+1,w
  2902     0719  04B8               	iorwf	LHalf_NumBuilder@Output,f
  2903     071A                     l1419:
  2904                           
  2905                           ;rendering.c: 258:        Output >>= 1;
  2906     071A  1003               	clrc
  2907     071B  0CB8               	rrf	LHalf_NumBuilder@Output,f
  2908     071C                     l1421:
  2909                           
  2910                           ;rendering.c: 259:        Output |= ((Block->ABlock << (character_line)) & 0b10000000);
  2911     071C  0870               	movf	LHalf_NumBuilder@Block,w
  2912     071D  0086               	movwf	6
  2913     071E  0187               	clrf	7
  2914     071F  0801               	movf	1,w
  2915     0720  00F2               	movwf	??_LHalf_NumBuilder
  2916     0721  0A74               	incf	LHalf_NumBuilder@character_line,w
  2917     0722  2F24               	goto	u2104
  2918     0723                     u2105:
  2919     0723  35F2               	lslf	??_LHalf_NumBuilder,f
  2920     0724                     u2104:
  2921     0724  0B89               	decfsz	9,f
  2922     0725  2F23               	goto	u2105
  2923     0726  0872               	movf	??_LHalf_NumBuilder,w
  2924     0727  3980               	andlw	128
  2925     0728  00F3               	movwf	??_LHalf_NumBuilder+1
  2926     0729  0873               	movf	??_LHalf_NumBuilder+1,w
  2927     072A  04B8               	iorwf	LHalf_NumBuilder@Output,f
  2928                           
  2929                           ;rendering.c: 260:        Output >>= 1;
  2930     072B  1003               	clrc
  2931     072C  0CB8               	rrf	LHalf_NumBuilder@Output,f
  2932     072D                     l1423:
  2933                           
  2934                           ;rendering.c: 261:        Output |= ((Block->BBlock << (character_line)) & 0b10000000);
  2935     072D  0A70               	incf	LHalf_NumBuilder@Block,w
  2936     072E  0086               	movwf	6
  2937     072F  0187               	clrf	7
  2938     0730  0801               	movf	1,w
  2939     0731  00F2               	movwf	??_LHalf_NumBuilder
  2940     0732  0A74               	incf	LHalf_NumBuilder@character_line,w
  2941     0733  2F35               	goto	u2114
  2942     0734                     u2115:
  2943     0734  35F2               	lslf	??_LHalf_NumBuilder,f
  2944     0735                     u2114:
  2945     0735  0B89               	decfsz	9,f
  2946     0736  2F34               	goto	u2115
  2947     0737  0872               	movf	??_LHalf_NumBuilder,w
  2948     0738  3980               	andlw	128
  2949     0739  00F3               	movwf	??_LHalf_NumBuilder+1
  2950     073A  0873               	movf	??_LHalf_NumBuilder+1,w
  2951     073B  04B8               	iorwf	LHalf_NumBuilder@Output,f
  2952     073C                     l1425:
  2953                           
  2954                           ;rendering.c: 262:        Output >>= 1;
  2955     073C  1003               	clrc
  2956     073D  0CB8               	rrf	LHalf_NumBuilder@Output,f
  2957                           
  2958                           ;rendering.c: 263:        Output |= ((Block->BBlock << (character_line)) & 0b10000000);
  2959     073E  0A70               	incf	LHalf_NumBuilder@Block,w
  2960     073F  0086               	movwf	6
  2961     0740  0187               	clrf	7
  2962     0741  0801               	movf	1,w
  2963     0742  00F2               	movwf	??_LHalf_NumBuilder
  2964     0743  0A74               	incf	LHalf_NumBuilder@character_line,w
  2965     0744  2F46               	goto	u2124
  2966     0745                     u2125:
  2967     0745  35F2               	lslf	??_LHalf_NumBuilder,f
  2968     0746                     u2124:
  2969     0746  0B89               	decfsz	9,f
  2970     0747  2F45               	goto	u2125
  2971     0748  0872               	movf	??_LHalf_NumBuilder,w
  2972     0749  3980               	andlw	128
  2973     074A  00F3               	movwf	??_LHalf_NumBuilder+1
  2974     074B  0873               	movf	??_LHalf_NumBuilder+1,w
  2975     074C  04B8               	iorwf	LHalf_NumBuilder@Output,f
  2976     074D                     l1427:
  2977                           
  2978                           ;rendering.c: 264:        Output >>= 1;
  2979     074D  1003               	clrc
  2980     074E  0CB8               	rrf	LHalf_NumBuilder@Output,f
  2981     074F                     l1429:
  2982                           
  2983                           ;rendering.c: 265:        Output |= ((Block->ABlock << (character_line)) & 0b10000000);
  2984     074F  0870               	movf	LHalf_NumBuilder@Block,w
  2985     0750  0086               	movwf	6
  2986     0751  0187               	clrf	7
  2987     0752  0801               	movf	1,w
  2988     0753  00F2               	movwf	??_LHalf_NumBuilder
  2989     0754  0A74               	incf	LHalf_NumBuilder@character_line,w
  2990     0755  2F57               	goto	u2134
  2991     0756                     u2135:
  2992     0756  35F2               	lslf	??_LHalf_NumBuilder,f
  2993     0757                     u2134:
  2994     0757  0B89               	decfsz	9,f
  2995     0758  2F56               	goto	u2135
  2996     0759  0872               	movf	??_LHalf_NumBuilder,w
  2997     075A  3980               	andlw	128
  2998     075B  00F3               	movwf	??_LHalf_NumBuilder+1
  2999     075C  0873               	movf	??_LHalf_NumBuilder+1,w
  3000     075D  04B8               	iorwf	LHalf_NumBuilder@Output,f
  3001     075E                     l1431:
  3002                           
  3003                           ;rendering.c: 268:     if(hours == 9){
  3004     075E  3009               	movlw	9
  3005     075F  0671               	xorwf	LHalf_NumBuilder@hours,w
  3006     0760  1D03               	btfss	3,2
  3007     0761  2F63               	goto	u2141
  3008     0762  2F64               	goto	u2140
  3009     0763                     u2141:
  3010     0763  2FEC               	goto	l81
  3011     0764                     u2140:
  3012     0764                     l1433:
  3013                           
  3014                           ;rendering.c: 270:        Output = ((Block->ABlock << (character_line)) & 0b10000000);
  3015     0764  0870               	movf	LHalf_NumBuilder@Block,w
  3016     0765  0086               	movwf	6
  3017     0766  0187               	clrf	7
  3018     0767  0801               	movf	1,w
  3019     0768  00F2               	movwf	??_LHalf_NumBuilder
  3020     0769  0A74               	incf	LHalf_NumBuilder@character_line,w
  3021     076A  2F6C               	goto	u2154
  3022     076B                     u2155:
  3023     076B  35F2               	lslf	??_LHalf_NumBuilder,f
  3024     076C                     u2154:
  3025     076C  0B89               	decfsz	9,f
  3026     076D  2F6B               	goto	u2155
  3027     076E  0872               	movf	??_LHalf_NumBuilder,w
  3028     076F  3980               	andlw	128
  3029     0770  0020               	movlb	0	; select bank0
  3030     0771  00B8               	movwf	LHalf_NumBuilder@Output
  3031     0772                     l1435:
  3032                           
  3033                           ;rendering.c: 271:        Output >>= 1;
  3034     0772  1003               	clrc
  3035     0773  0CB8               	rrf	LHalf_NumBuilder@Output,f
  3036     0774                     l1437:
  3037                           
  3038                           ;rendering.c: 272:        Output |= ((Block->BBlock << (character_line)) & 0b10000000);
  3039     0774  0A70               	incf	LHalf_NumBuilder@Block,w
  3040     0775  0086               	movwf	6
  3041     0776  0187               	clrf	7
  3042     0777  0801               	movf	1,w
  3043     0778  00F2               	movwf	??_LHalf_NumBuilder
  3044     0779  0A74               	incf	LHalf_NumBuilder@character_line,w
  3045     077A  2F7C               	goto	u2164
  3046     077B                     u2165:
  3047     077B  35F2               	lslf	??_LHalf_NumBuilder,f
  3048     077C                     u2164:
  3049     077C  0B89               	decfsz	9,f
  3050     077D  2F7B               	goto	u2165
  3051     077E  0872               	movf	??_LHalf_NumBuilder,w
  3052     077F  3980               	andlw	128
  3053     0780  00F3               	movwf	??_LHalf_NumBuilder+1
  3054     0781  0873               	movf	??_LHalf_NumBuilder+1,w
  3055     0782  04B8               	iorwf	LHalf_NumBuilder@Output,f
  3056                           
  3057                           ;rendering.c: 273:        Output >>= 1;
  3058     0783  1003               	clrc
  3059     0784  0CB8               	rrf	LHalf_NumBuilder@Output,f
  3060     0785                     l1439:
  3061                           
  3062                           ;rendering.c: 274:        Output |= ((Block->JBlock << (character_line)) & 0b10000000);
  3063     0785  0870               	movf	LHalf_NumBuilder@Block,w
  3064     0786  3E09               	addlw	9
  3065     0787  0086               	movwf	6
  3066     0788  0187               	clrf	7
  3067     0789  0801               	movf	1,w
  3068     078A  00F2               	movwf	??_LHalf_NumBuilder
  3069     078B  0A74               	incf	LHalf_NumBuilder@character_line,w
  3070     078C  2F8E               	goto	u2174
  3071     078D                     u2175:
  3072     078D  35F2               	lslf	??_LHalf_NumBuilder,f
  3073     078E                     u2174:
  3074     078E  0B89               	decfsz	9,f
  3075     078F  2F8D               	goto	u2175
  3076     0790  0872               	movf	??_LHalf_NumBuilder,w
  3077     0791  3980               	andlw	128
  3078     0792  00F3               	movwf	??_LHalf_NumBuilder+1
  3079     0793  0873               	movf	??_LHalf_NumBuilder+1,w
  3080     0794  04B8               	iorwf	LHalf_NumBuilder@Output,f
  3081     0795                     l1441:
  3082                           
  3083                           ;rendering.c: 275:        Output >>= 1;
  3084     0795  1003               	clrc
  3085     0796  0CB8               	rrf	LHalf_NumBuilder@Output,f
  3086                           
  3087                           ;rendering.c: 276:        Output |= ((Block->UBlock << (character_line)) & 0b10000000);
  3088     0797  0870               	movf	LHalf_NumBuilder@Block,w
  3089     0798  3E14               	addlw	20
  3090     0799  0086               	movwf	6
  3091     079A  0187               	clrf	7
  3092     079B  0801               	movf	1,w
  3093     079C  00F2               	movwf	??_LHalf_NumBuilder
  3094     079D  0A74               	incf	LHalf_NumBuilder@character_line,w
  3095     079E  2FA0               	goto	u2184
  3096     079F                     u2185:
  3097     079F  35F2               	lslf	??_LHalf_NumBuilder,f
  3098     07A0                     u2184:
  3099     07A0  0B89               	decfsz	9,f
  3100     07A1  2F9F               	goto	u2185
  3101     07A2  0872               	movf	??_LHalf_NumBuilder,w
  3102     07A3  3980               	andlw	128
  3103     07A4  00F3               	movwf	??_LHalf_NumBuilder+1
  3104     07A5  0873               	movf	??_LHalf_NumBuilder+1,w
  3105     07A6  04B8               	iorwf	LHalf_NumBuilder@Output,f
  3106     07A7                     l1443:
  3107                           
  3108                           ;rendering.c: 277:        Output >>= 1;
  3109     07A7  1003               	clrc
  3110     07A8  0CB8               	rrf	LHalf_NumBuilder@Output,f
  3111     07A9                     l1445:
  3112                           
  3113                           ;rendering.c: 278:        Output |= ((Block->TBlock << (character_line)) & 0b10000000);
  3114     07A9  0870               	movf	LHalf_NumBuilder@Block,w
  3115     07AA  3E13               	addlw	19
  3116     07AB  0086               	movwf	6
  3117     07AC  0187               	clrf	7
  3118     07AD  0801               	movf	1,w
  3119     07AE  00F2               	movwf	??_LHalf_NumBuilder
  3120     07AF  0A74               	incf	LHalf_NumBuilder@character_line,w
  3121     07B0  2FB2               	goto	u2194
  3122     07B1                     u2195:
  3123     07B1  35F2               	lslf	??_LHalf_NumBuilder,f
  3124     07B2                     u2194:
  3125     07B2  0B89               	decfsz	9,f
  3126     07B3  2FB1               	goto	u2195
  3127     07B4  0872               	movf	??_LHalf_NumBuilder,w
  3128     07B5  3980               	andlw	128
  3129     07B6  00F3               	movwf	??_LHalf_NumBuilder+1
  3130     07B7  0873               	movf	??_LHalf_NumBuilder+1,w
  3131     07B8  04B8               	iorwf	LHalf_NumBuilder@Output,f
  3132                           
  3133                           ;rendering.c: 279:        Output >>= 1;
  3134     07B9  1003               	clrc
  3135     07BA  0CB8               	rrf	LHalf_NumBuilder@Output,f
  3136     07BB                     l1447:
  3137                           
  3138                           ;rendering.c: 280:        Output |= ((Block->BBlock << (character_line)) & 0b10000000);
  3139     07BB  0A70               	incf	LHalf_NumBuilder@Block,w
  3140     07BC  0086               	movwf	6
  3141     07BD  0187               	clrf	7
  3142     07BE  0801               	movf	1,w
  3143     07BF  00F2               	movwf	??_LHalf_NumBuilder
  3144     07C0  0A74               	incf	LHalf_NumBuilder@character_line,w
  3145     07C1  2FC3               	goto	u2204
  3146     07C2                     u2205:
  3147     07C2  35F2               	lslf	??_LHalf_NumBuilder,f
  3148     07C3                     u2204:
  3149     07C3  0B89               	decfsz	9,f
  3150     07C4  2FC2               	goto	u2205
  3151     07C5  0872               	movf	??_LHalf_NumBuilder,w
  3152     07C6  3980               	andlw	128
  3153     07C7  00F3               	movwf	??_LHalf_NumBuilder+1
  3154     07C8  0873               	movf	??_LHalf_NumBuilder+1,w
  3155     07C9  04B8               	iorwf	LHalf_NumBuilder@Output,f
  3156     07CA                     l1449:
  3157                           
  3158                           ;rendering.c: 281:        Output >>= 1;
  3159     07CA  1003               	clrc
  3160     07CB  0CB8               	rrf	LHalf_NumBuilder@Output,f
  3161                           
  3162                           ;rendering.c: 282:        Output |= ((Block->BBlock << (character_line)) & 0b10000000);
  3163     07CC  0A70               	incf	LHalf_NumBuilder@Block,w
  3164     07CD  0086               	movwf	6
  3165     07CE  0187               	clrf	7
  3166     07CF  0801               	movf	1,w
  3167     07D0  00F2               	movwf	??_LHalf_NumBuilder
  3168     07D1  0A74               	incf	LHalf_NumBuilder@character_line,w
  3169     07D2  2FD4               	goto	u2214
  3170     07D3                     u2215:
  3171     07D3  35F2               	lslf	??_LHalf_NumBuilder,f
  3172     07D4                     u2214:
  3173     07D4  0B89               	decfsz	9,f
  3174     07D5  2FD3               	goto	u2215
  3175     07D6  0872               	movf	??_LHalf_NumBuilder,w
  3176     07D7  3980               	andlw	128
  3177     07D8  00F3               	movwf	??_LHalf_NumBuilder+1
  3178     07D9  0873               	movf	??_LHalf_NumBuilder+1,w
  3179     07DA  04B8               	iorwf	LHalf_NumBuilder@Output,f
  3180     07DB                     l1451:
  3181                           
  3182                           ;rendering.c: 283:        Output >>= 1;
  3183     07DB  1003               	clrc
  3184     07DC  0CB8               	rrf	LHalf_NumBuilder@Output,f
  3185     07DD                     l1453:
  3186                           
  3187                           ;rendering.c: 284:        Output |= ((Block->ABlock << (character_line)) & 0b10000000);
  3188     07DD  0870               	movf	LHalf_NumBuilder@Block,w
  3189     07DE  0086               	movwf	6
  3190     07DF  0187               	clrf	7
  3191     07E0  0801               	movf	1,w
  3192     07E1  00F2               	movwf	??_LHalf_NumBuilder
  3193     07E2  0A74               	incf	LHalf_NumBuilder@character_line,w
  3194     07E3  2FE5               	goto	u2224
  3195     07E4                     u2225:
  3196     07E4  35F2               	lslf	??_LHalf_NumBuilder,f
  3197     07E5                     u2224:
  3198     07E5  0B89               	decfsz	9,f
  3199     07E6  2FE4               	goto	u2225
  3200     07E7  0872               	movf	??_LHalf_NumBuilder,w
  3201     07E8  3980               	andlw	128
  3202     07E9  00F3               	movwf	??_LHalf_NumBuilder+1
  3203     07EA  0873               	movf	??_LHalf_NumBuilder+1,w
  3204     07EB  04B8               	iorwf	LHalf_NumBuilder@Output,f
  3205     07EC                     l81:	
  3206                           ;rendering.c: 285:     }
  3207                           
  3208                           
  3209                           ;rendering.c: 287:     return Output;
  3210     07EC  0020               	movlb	0	; select bank0
  3211     07ED  0838               	movf	LHalf_NumBuilder@Output,w
  3212     07EE                     l82:
  3213     07EE  0008               	return
  3214     07EF                     __end_of_LHalf_NumBuilder:
  3215                           
  3216                           	psect	text6
  3217     0175                     __ptext6:	
  3218 ;; *************** function _Hour_deconstruct *****************
  3219 ;; Defined at:
  3220 ;;		line 36 in file "rendering.c"
  3221 ;; Parameters:    Size  Location     Type
  3222 ;;  access_line     1    wreg     const unsigned char 
  3223 ;;  hours           1    9[COMMON] const unsigned char 
  3224 ;; Auto vars:     Size  Location     Type
  3225 ;;  access_line     1   12[COMMON] const unsigned char 
  3226 ;; Return value:  Size  Location     Type
  3227 ;;                  1    wreg      unsigned char 
  3228 ;; Registers used:
  3229 ;;		wreg, status,2, status,0, pclath, cstack
  3230 ;; Tracked objects:
  3231 ;;		On entry : 0/0
  3232 ;;		On exit  : 0/0
  3233 ;;		Unchanged: 0/0
  3234 ;; Data sizes:     COMMON   BANK0   BANK1   BANK2
  3235 ;;      Params:         1       0       0       0
  3236 ;;      Locals:         1       0       0       0
  3237 ;;      Temps:          2       0       0       0
  3238 ;;      Totals:         4       0       0       0
  3239 ;;Total ram usage:        4 bytes
  3240 ;; Hardware stack levels used: 1
  3241 ;; Hardware stack levels required when called: 1
  3242 ;; This function calls:
  3243 ;;		___awdiv
  3244 ;;		___awmod
  3245 ;; This function is called by:
  3246 ;;		_main
  3247 ;; This function uses a non-reentrant model
  3248 ;;
  3249                           
  3250     0175                     _Hour_deconstruct:	
  3251                           ;psect for function _Hour_deconstruct
  3252                           
  3253                           
  3254                           ;incstack = 0
  3255                           ; Regs used in _Hour_deconstruct: [wreg+status,2+status,0+pclath+cstack]
  3256                           ;Hour_deconstruct@access_line stored from wreg
  3257     0175  00FC               	movwf	Hour_deconstruct@access_line
  3258     0176                     l1195:
  3259                           
  3260                           ;rendering.c: 37:     static Uint8 Output = 0;;rendering.c: 39:     if(access_line < 6){
  3261     0176  3006               	movlw	6
  3262     0177  027C               	subwf	Hour_deconstruct@access_line,w
  3263     0178  1803               	skipnc
  3264     0179  297B               	goto	u1311
  3265     017A  297C               	goto	u1310
  3266     017B                     u1311:
  3267     017B  298D               	goto	l1199
  3268     017C                     u1310:
  3269     017C                     l1197:
  3270                           
  3271                           ;rendering.c: 40:         Output = hours / 10;
  3272     017C  300A               	movlw	10
  3273     017D  00F0               	movwf	___awdiv@divisor
  3274     017E  3000               	movlw	0
  3275     017F  00F1               	movwf	___awdiv@divisor+1
  3276     0180  0879               	movf	Hour_deconstruct@hours,w
  3277     0181  00FA               	movwf	??_Hour_deconstruct
  3278     0182  01FB               	clrf	??_Hour_deconstruct+1
  3279     0183  087A               	movf	??_Hour_deconstruct,w
  3280     0184  00F2               	movwf	___awdiv@dividend
  3281     0185  087B               	movf	??_Hour_deconstruct+1,w
  3282     0186  00F3               	movwf	___awdiv@dividend+1
  3283     0187  3181  21F2  3181   	fcall	___awdiv
  3284     018A  0870               	movf	?___awdiv,w
  3285     018B  00FD               	movwf	Hour_deconstruct@Output
  3286                           
  3287                           ;rendering.c: 41:     }
  3288     018C  299D               	goto	l1201
  3289     018D                     l1199:
  3290                           
  3291                           ;rendering.c: 43:         Output = hours % 10;
  3292     018D  300A               	movlw	10
  3293     018E  00F0               	movwf	___awmod@divisor
  3294     018F  3000               	movlw	0
  3295     0190  00F1               	movwf	___awmod@divisor+1
  3296     0191  0879               	movf	Hour_deconstruct@hours,w
  3297     0192  00FA               	movwf	??_Hour_deconstruct
  3298     0193  01FB               	clrf	??_Hour_deconstruct+1
  3299     0194  087A               	movf	??_Hour_deconstruct,w
  3300     0195  00F2               	movwf	___awmod@dividend
  3301     0196  087B               	movf	??_Hour_deconstruct+1,w
  3302     0197  00F3               	movwf	___awmod@dividend+1
  3303     0198  3181  219F  3181   	fcall	___awmod
  3304     019B  0870               	movf	?___awmod,w
  3305     019C  00FD               	movwf	Hour_deconstruct@Output
  3306     019D                     l1201:
  3307                           
  3308                           ;rendering.c: 45:     return Output;
  3309     019D  087D               	movf	Hour_deconstruct@Output,w
  3310     019E                     l60:
  3311     019E  0008               	return
  3312     019F                     __end_of_Hour_deconstruct:
  3313                           
  3314                           	psect	text7
  3315     019F                     __ptext7:	
  3316 ;; *************** function ___awmod *****************
  3317 ;; Defined at:
  3318 ;;		line 5 in file "C:\Program Files\Microchip\xc8\v2.45\pic\sources\c99\common\awmod.c"
  3319 ;; Parameters:    Size  Location     Type
  3320 ;;  divisor         2    0[COMMON] int 
  3321 ;;  dividend        2    2[COMMON] int 
  3322 ;; Auto vars:     Size  Location     Type
  3323 ;;  sign            1    6[COMMON] unsigned char 
  3324 ;;  counter         1    5[COMMON] unsigned char 
  3325 ;; Return value:  Size  Location     Type
  3326 ;;                  2    0[COMMON] int 
  3327 ;; Registers used:
  3328 ;;		wreg, status,2, status,0
  3329 ;; Tracked objects:
  3330 ;;		On entry : 0/0
  3331 ;;		On exit  : 0/0
  3332 ;;		Unchanged: 0/0
  3333 ;; Data sizes:     COMMON   BANK0   BANK1   BANK2
  3334 ;;      Params:         4       0       0       0
  3335 ;;      Locals:         2       0       0       0
  3336 ;;      Temps:          1       0       0       0
  3337 ;;      Totals:         7       0       0       0
  3338 ;;Total ram usage:        7 bytes
  3339 ;; Hardware stack levels used: 1
  3340 ;; This function calls:
  3341 ;;		Nothing
  3342 ;; This function is called by:
  3343 ;;		_Hour_deconstruct
  3344 ;; This function uses a non-reentrant model
  3345 ;;
  3346                           
  3347     019F                     ___awmod:	
  3348                           ;psect for function ___awmod
  3349                           
  3350     019F                     l1155:	
  3351                           ;incstack = 0
  3352                           ; Regs used in ___awmod: [wreg+status,2+status,0]
  3353                           
  3354     019F  01F6               	clrf	___awmod@sign
  3355     01A0                     l1157:
  3356     01A0  1FF3               	btfss	___awmod@dividend+1,7
  3357     01A1  29A3               	goto	u1221
  3358     01A2  29A4               	goto	u1220
  3359     01A3                     u1221:
  3360     01A3  29AB               	goto	l1163
  3361     01A4                     u1220:
  3362     01A4                     l1159:
  3363     01A4  09F2               	comf	___awmod@dividend,f
  3364     01A5  09F3               	comf	___awmod@dividend+1,f
  3365     01A6  0AF2               	incf	___awmod@dividend,f
  3366     01A7  1903               	skipnz
  3367     01A8  0AF3               	incf	___awmod@dividend+1,f
  3368     01A9                     l1161:
  3369     01A9  01F6               	clrf	___awmod@sign
  3370     01AA  0AF6               	incf	___awmod@sign,f
  3371     01AB                     l1163:
  3372     01AB  1FF1               	btfss	___awmod@divisor+1,7
  3373     01AC  29AE               	goto	u1231
  3374     01AD  29AF               	goto	u1230
  3375     01AE                     u1231:
  3376     01AE  29B4               	goto	l1167
  3377     01AF                     u1230:
  3378     01AF                     l1165:
  3379     01AF  09F0               	comf	___awmod@divisor,f
  3380     01B0  09F1               	comf	___awmod@divisor+1,f
  3381     01B1  0AF0               	incf	___awmod@divisor,f
  3382     01B2  1903               	skipnz
  3383     01B3  0AF1               	incf	___awmod@divisor+1,f
  3384     01B4                     l1167:
  3385     01B4  0870               	movf	___awmod@divisor,w
  3386     01B5  0471               	iorwf	___awmod@divisor+1,w
  3387     01B6  1903               	btfsc	3,2
  3388     01B7  29B9               	goto	u1241
  3389     01B8  29BA               	goto	u1240
  3390     01B9                     u1241:
  3391     01B9  29E3               	goto	l1185
  3392     01BA                     u1240:
  3393     01BA                     l1169:
  3394     01BA  01F5               	clrf	___awmod@counter
  3395     01BB  0AF5               	incf	___awmod@counter,f
  3396     01BC  29C6               	goto	l1175
  3397     01BD                     l1171:
  3398     01BD  3001               	movlw	1
  3399     01BE                     u1255:
  3400     01BE  35F0               	lslf	___awmod@divisor,f
  3401     01BF  0DF1               	rlf	___awmod@divisor+1,f
  3402     01C0  0B89               	decfsz	9,f
  3403     01C1  29BE               	goto	u1255
  3404     01C2                     l1173:
  3405     01C2  3001               	movlw	1
  3406     01C3  00F4               	movwf	??___awmod
  3407     01C4  0874               	movf	??___awmod,w
  3408     01C5  07F5               	addwf	___awmod@counter,f
  3409     01C6                     l1175:
  3410     01C6  1FF1               	btfss	___awmod@divisor+1,7
  3411     01C7  29C9               	goto	u1261
  3412     01C8  29CA               	goto	u1260
  3413     01C9                     u1261:
  3414     01C9  29BD               	goto	l1171
  3415     01CA                     u1260:
  3416     01CA                     l1177:
  3417     01CA  0871               	movf	___awmod@divisor+1,w
  3418     01CB  0273               	subwf	___awmod@dividend+1,w
  3419     01CC  1D03               	skipz
  3420     01CD  29D0               	goto	u1275
  3421     01CE  0870               	movf	___awmod@divisor,w
  3422     01CF  0272               	subwf	___awmod@dividend,w
  3423     01D0                     u1275:
  3424     01D0  1C03               	skipc
  3425     01D1  29D3               	goto	u1271
  3426     01D2  29D4               	goto	u1270
  3427     01D3                     u1271:
  3428     01D3  29D8               	goto	l1181
  3429     01D4                     u1270:
  3430     01D4                     l1179:
  3431     01D4  0870               	movf	___awmod@divisor,w
  3432     01D5  02F2               	subwf	___awmod@dividend,f
  3433     01D6  0871               	movf	___awmod@divisor+1,w
  3434     01D7  3BF3               	subwfb	___awmod@dividend+1,f
  3435     01D8                     l1181:
  3436     01D8  3001               	movlw	1
  3437     01D9                     u1285:
  3438     01D9  36F1               	lsrf	___awmod@divisor+1,f
  3439     01DA  0CF0               	rrf	___awmod@divisor,f
  3440     01DB  0B89               	decfsz	9,f
  3441     01DC  29D9               	goto	u1285
  3442     01DD                     l1183:
  3443     01DD  3001               	movlw	1
  3444     01DE  02F5               	subwf	___awmod@counter,f
  3445     01DF  1D03               	btfss	3,2
  3446     01E0  29E2               	goto	u1291
  3447     01E1  29E3               	goto	u1290
  3448     01E2                     u1291:
  3449     01E2  29CA               	goto	l1177
  3450     01E3                     u1290:
  3451     01E3                     l1185:
  3452     01E3  0876               	movf	___awmod@sign,w
  3453     01E4  1903               	btfsc	3,2
  3454     01E5  29E7               	goto	u1301
  3455     01E6  29E8               	goto	u1300
  3456     01E7                     u1301:
  3457     01E7  29ED               	goto	l1189
  3458     01E8                     u1300:
  3459     01E8                     l1187:
  3460     01E8  09F2               	comf	___awmod@dividend,f
  3461     01E9  09F3               	comf	___awmod@dividend+1,f
  3462     01EA  0AF2               	incf	___awmod@dividend,f
  3463     01EB  1903               	skipnz
  3464     01EC  0AF3               	incf	___awmod@dividend+1,f
  3465     01ED                     l1189:
  3466     01ED  0873               	movf	___awmod@dividend+1,w
  3467     01EE  00F1               	movwf	?___awmod+1
  3468     01EF  0872               	movf	___awmod@dividend,w
  3469     01F0  00F0               	movwf	?___awmod
  3470     01F1                     l425:
  3471     01F1  0008               	return
  3472     01F2                     __end_of___awmod:
  3473                           
  3474                           	psect	text8
  3475     01F2                     __ptext8:	
  3476 ;; *************** function ___awdiv *****************
  3477 ;; Defined at:
  3478 ;;		line 5 in file "C:\Program Files\Microchip\xc8\v2.45\pic\sources\c99\common\awdiv.c"
  3479 ;; Parameters:    Size  Location     Type
  3480 ;;  divisor         2    0[COMMON] int 
  3481 ;;  dividend        2    2[COMMON] int 
  3482 ;; Auto vars:     Size  Location     Type
  3483 ;;  quotient        2    7[COMMON] int 
  3484 ;;  sign            1    6[COMMON] unsigned char 
  3485 ;;  counter         1    5[COMMON] unsigned char 
  3486 ;; Return value:  Size  Location     Type
  3487 ;;                  2    0[COMMON] int 
  3488 ;; Registers used:
  3489 ;;		wreg, status,2, status,0
  3490 ;; Tracked objects:
  3491 ;;		On entry : 0/0
  3492 ;;		On exit  : 0/0
  3493 ;;		Unchanged: 0/0
  3494 ;; Data sizes:     COMMON   BANK0   BANK1   BANK2
  3495 ;;      Params:         4       0       0       0
  3496 ;;      Locals:         4       0       0       0
  3497 ;;      Temps:          1       0       0       0
  3498 ;;      Totals:         9       0       0       0
  3499 ;;Total ram usage:        9 bytes
  3500 ;; Hardware stack levels used: 1
  3501 ;; This function calls:
  3502 ;;		Nothing
  3503 ;; This function is called by:
  3504 ;;		_Hour_deconstruct
  3505 ;; This function uses a non-reentrant model
  3506 ;;
  3507                           
  3508     01F2                     ___awdiv:	
  3509                           ;psect for function ___awdiv
  3510                           
  3511     01F2                     l1111:	
  3512                           ;incstack = 0
  3513                           ; Regs used in ___awdiv: [wreg+status,2+status,0]
  3514                           
  3515     01F2  01F6               	clrf	___awdiv@sign
  3516     01F3                     l1113:
  3517     01F3  1FF1               	btfss	___awdiv@divisor+1,7
  3518     01F4  29F6               	goto	u1121
  3519     01F5  29F7               	goto	u1120
  3520     01F6                     u1121:
  3521     01F6  29FE               	goto	l1119
  3522     01F7                     u1120:
  3523     01F7                     l1115:
  3524     01F7  09F0               	comf	___awdiv@divisor,f
  3525     01F8  09F1               	comf	___awdiv@divisor+1,f
  3526     01F9  0AF0               	incf	___awdiv@divisor,f
  3527     01FA  1903               	skipnz
  3528     01FB  0AF1               	incf	___awdiv@divisor+1,f
  3529     01FC                     l1117:
  3530     01FC  01F6               	clrf	___awdiv@sign
  3531     01FD  0AF6               	incf	___awdiv@sign,f
  3532     01FE                     l1119:
  3533     01FE  1FF3               	btfss	___awdiv@dividend+1,7
  3534     01FF  2A01               	goto	u1131
  3535     0200  2A02               	goto	u1130
  3536     0201                     u1131:
  3537     0201  2A0B               	goto	l1125
  3538     0202                     u1130:
  3539     0202                     l1121:
  3540     0202  09F2               	comf	___awdiv@dividend,f
  3541     0203  09F3               	comf	___awdiv@dividend+1,f
  3542     0204  0AF2               	incf	___awdiv@dividend,f
  3543     0205  1903               	skipnz
  3544     0206  0AF3               	incf	___awdiv@dividend+1,f
  3545     0207                     l1123:
  3546     0207  3001               	movlw	1
  3547     0208  00F4               	movwf	??___awdiv
  3548     0209  0874               	movf	??___awdiv,w
  3549     020A  06F6               	xorwf	___awdiv@sign,f
  3550     020B                     l1125:
  3551     020B  01F7               	clrf	___awdiv@quotient
  3552     020C  01F8               	clrf	___awdiv@quotient+1
  3553     020D                     l1127:
  3554     020D  0870               	movf	___awdiv@divisor,w
  3555     020E  0471               	iorwf	___awdiv@divisor+1,w
  3556     020F  1903               	btfsc	3,2
  3557     0210  2A12               	goto	u1141
  3558     0211  2A13               	goto	u1140
  3559     0212                     u1141:
  3560     0212  2A42               	goto	l1147
  3561     0213                     u1140:
  3562     0213                     l1129:
  3563     0213  01F5               	clrf	___awdiv@counter
  3564     0214  0AF5               	incf	___awdiv@counter,f
  3565     0215  2A1F               	goto	l1135
  3566     0216                     l1131:
  3567     0216  3001               	movlw	1
  3568     0217                     u1155:
  3569     0217  35F0               	lslf	___awdiv@divisor,f
  3570     0218  0DF1               	rlf	___awdiv@divisor+1,f
  3571     0219  0B89               	decfsz	9,f
  3572     021A  2A17               	goto	u1155
  3573     021B                     l1133:
  3574     021B  3001               	movlw	1
  3575     021C  00F4               	movwf	??___awdiv
  3576     021D  0874               	movf	??___awdiv,w
  3577     021E  07F5               	addwf	___awdiv@counter,f
  3578     021F                     l1135:
  3579     021F  1FF1               	btfss	___awdiv@divisor+1,7
  3580     0220  2A22               	goto	u1161
  3581     0221  2A23               	goto	u1160
  3582     0222                     u1161:
  3583     0222  2A16               	goto	l1131
  3584     0223                     u1160:
  3585     0223                     l1137:
  3586     0223  3001               	movlw	1
  3587     0224                     u1175:
  3588     0224  35F7               	lslf	___awdiv@quotient,f
  3589     0225  0DF8               	rlf	___awdiv@quotient+1,f
  3590     0226  0B89               	decfsz	9,f
  3591     0227  2A24               	goto	u1175
  3592     0228  0871               	movf	___awdiv@divisor+1,w
  3593     0229  0273               	subwf	___awdiv@dividend+1,w
  3594     022A  1D03               	skipz
  3595     022B  2A2E               	goto	u1185
  3596     022C  0870               	movf	___awdiv@divisor,w
  3597     022D  0272               	subwf	___awdiv@dividend,w
  3598     022E                     u1185:
  3599     022E  1C03               	skipc
  3600     022F  2A31               	goto	u1181
  3601     0230  2A32               	goto	u1180
  3602     0231                     u1181:
  3603     0231  2A37               	goto	l1143
  3604     0232                     u1180:
  3605     0232                     l1139:
  3606     0232  0870               	movf	___awdiv@divisor,w
  3607     0233  02F2               	subwf	___awdiv@dividend,f
  3608     0234  0871               	movf	___awdiv@divisor+1,w
  3609     0235  3BF3               	subwfb	___awdiv@dividend+1,f
  3610     0236                     l1141:
  3611     0236  1477               	bsf	___awdiv@quotient,0
  3612     0237                     l1143:
  3613     0237  3001               	movlw	1
  3614     0238                     u1195:
  3615     0238  36F1               	lsrf	___awdiv@divisor+1,f
  3616     0239  0CF0               	rrf	___awdiv@divisor,f
  3617     023A  0B89               	decfsz	9,f
  3618     023B  2A38               	goto	u1195
  3619     023C                     l1145:
  3620     023C  3001               	movlw	1
  3621     023D  02F5               	subwf	___awdiv@counter,f
  3622     023E  1D03               	btfss	3,2
  3623     023F  2A41               	goto	u1201
  3624     0240  2A42               	goto	u1200
  3625     0241                     u1201:
  3626     0241  2A23               	goto	l1137
  3627     0242                     u1200:
  3628     0242                     l1147:
  3629     0242  0876               	movf	___awdiv@sign,w
  3630     0243  1903               	btfsc	3,2
  3631     0244  2A46               	goto	u1211
  3632     0245  2A47               	goto	u1210
  3633     0246                     u1211:
  3634     0246  2A4C               	goto	l1151
  3635     0247                     u1210:
  3636     0247                     l1149:
  3637     0247  09F7               	comf	___awdiv@quotient,f
  3638     0248  09F8               	comf	___awdiv@quotient+1,f
  3639     0249  0AF7               	incf	___awdiv@quotient,f
  3640     024A  1903               	skipnz
  3641     024B  0AF8               	incf	___awdiv@quotient+1,f
  3642     024C                     l1151:
  3643     024C  0878               	movf	___awdiv@quotient+1,w
  3644     024D  00F1               	movwf	?___awdiv+1
  3645     024E  0877               	movf	___awdiv@quotient,w
  3646     024F  00F0               	movwf	?___awdiv
  3647     0250                     l412:
  3648     0250  0008               	return
  3649     0251                     __end_of___awdiv:
  3650                           
  3651                           	psect	text9
  3652     0118                     __ptext9:	
  3653 ;; *************** function _Character_Line *****************
  3654 ;; Defined at:
  3655 ;;		line 48 in file "rendering.c"
  3656 ;; Parameters:    Size  Location     Type
  3657 ;;  access_line     1    wreg     const unsigned char 
  3658 ;; Auto vars:     Size  Location     Type
  3659 ;;  access_line     1    1[COMMON] const unsigned char 
  3660 ;; Return value:  Size  Location     Type
  3661 ;;                  1    wreg      unsigned char 
  3662 ;; Registers used:
  3663 ;;		wreg, status,2, status,0
  3664 ;; Tracked objects:
  3665 ;;		On entry : 0/0
  3666 ;;		On exit  : 0/0
  3667 ;;		Unchanged: 0/0
  3668 ;; Data sizes:     COMMON   BANK0   BANK1   BANK2
  3669 ;;      Params:         0       0       0       0
  3670 ;;      Locals:         1       0       0       0
  3671 ;;      Temps:          1       0       0       0
  3672 ;;      Totals:         2       0       0       0
  3673 ;;Total ram usage:        2 bytes
  3674 ;; Hardware stack levels used: 1
  3675 ;; This function calls:
  3676 ;;		Nothing
  3677 ;; This function is called by:
  3678 ;;		_main
  3679 ;; This function uses a non-reentrant model
  3680 ;;
  3681                           
  3682     0118                     _Character_Line:	
  3683                           ;psect for function _Character_Line
  3684                           
  3685                           
  3686                           ;incstack = 0
  3687                           ; Regs used in _Character_Line: [wreg+status,2+status,0]
  3688                           ;Character_Line@access_line stored from wreg
  3689     0118  00F1               	movwf	Character_Line@access_line
  3690     0119                     l1205:
  3691                           
  3692                           ;rendering.c: 49:     static Uint8 character_line = 0;;rendering.c: 51:     if(access_li
      +                          ne < 6){
  3693     0119  3006               	movlw	6
  3694     011A  0271               	subwf	Character_Line@access_line,w
  3695     011B  1803               	skipnc
  3696     011C  291E               	goto	u1321
  3697     011D  291F               	goto	u1320
  3698     011E                     u1321:
  3699     011E  2923               	goto	l1209
  3700     011F                     u1320:
  3701     011F                     l1207:
  3702                           
  3703                           ;rendering.c: 52:         character_line = access_line;
  3704     011F  0871               	movf	Character_Line@access_line,w
  3705     0120  0020               	movlb	0	; select bank0
  3706     0121  00B9               	movwf	Character_Line@character_line
  3707                           
  3708                           ;rendering.c: 53:     }
  3709     0122  2927               	goto	l66
  3710     0123                     l1209:
  3711                           
  3712                           ;rendering.c: 55:         character_line = access_line - 6;
  3713     0123  0871               	movf	Character_Line@access_line,w
  3714     0124  3EFA               	addlw	250
  3715     0125  0020               	movlb	0	; select bank0
  3716     0126  00B9               	movwf	Character_Line@character_line
  3717     0127                     l66:	
  3718                           ;rendering.c: 56:     }
  3719                           
  3720                           
  3721                           ;rendering.c: 58:     character_line += 2;
  3722     0127  3002               	movlw	2
  3723     0128  00F0               	movwf	??_Character_Line
  3724     0129  0870               	movf	??_Character_Line,w
  3725     012A  07B9               	addwf	Character_Line@character_line,f
  3726     012B                     l1211:
  3727                           
  3728                           ;rendering.c: 59:     return character_line;
  3729     012B  0839               	movf	Character_Line@character_line,w
  3730     012C                     l67:
  3731     012C  0008               	return
  3732     012D                     __end_of_Character_Line:
  3733     007E                     btemp	set	126	;btemp
  3734     007E                     wtemp0	set	126
  3735                           
  3736                           	psect	config
  3737                           
  3738                           ;Config register CONFIG1 @ 0x8007
  3739                           ;	Oscillator Selection
  3740                           ;	FOSC = INTOSC, INTOSC oscillator: I/O function on CLKIN pin
  3741                           ;	Watchdog Timer Enable
  3742                           ;	WDTE = OFF, WDT disabled
  3743                           ;	Power-up Timer Enable
  3744                           ;	PWRTE = OFF, PWRT disabled
  3745                           ;	MCLR Pin Function Select
  3746                           ;	MCLRE = ON, MCLR/VPP pin function is MCLR
  3747                           ;	Flash Program Memory Code Protection
  3748                           ;	CP = OFF, Program memory code protection is disabled
  3749                           ;	Data Memory Code Protection
  3750                           ;	CPD = OFF, Data memory code protection is disabled
  3751                           ;	Brown-out Reset Enable
  3752                           ;	BOREN = ON, Brown-out Reset enabled
  3753                           ;	Clock Out Enable
  3754                           ;	CLKOUTEN = OFF, CLKOUT function is disabled. I/O or oscillator function on the CLKOUT 
      +                          pin
  3755                           ;	Internal/External Switchover
  3756                           ;	IESO = ON, Internal/External Switchover mode is enabled
  3757                           ;	Fail-Safe Clock Monitor Enable
  3758                           ;	FCMEN = ON, Fail-Safe Clock Monitor is enabled
  3759     8007                     	org	32775
  3760     8007  3FE4               	dw	16356
  3761                           
  3762                           ;Config register CONFIG2 @ 0x8008
  3763                           ;	Flash Memory Self-Write Protection
  3764                           ;	WRT = OFF, Write protection off
  3765                           ;	PLL Enable
  3766                           ;	PLLEN = OFF, 4x PLL disabled
  3767                           ;	Stack Overflow/Underflow Reset Enable
  3768                           ;	STVREN = ON, Stack Overflow or Underflow will cause a Reset
  3769                           ;	Brown-out Reset Voltage Selection
  3770                           ;	BORV = LO, Brown-out Reset Voltage (Vbor), low trip point selected.
  3771                           ;	In-Circuit Debugger Mode
  3772                           ;	DEBUG = 0x1, unprogrammed default
  3773                           ;	Low-Voltage Programming Enable
  3774                           ;	LVP = ON, Low-voltage programming enabled
  3775     8008                     	org	32776
  3776     8008  3EFF               	dw	16127

Data Sizes:
    Strings     0
    Constant    0
    Data        21
    BSS         3
    Persistent  35
    Stack       0

Auto Spaces:
    Space          Size  Autos    Used
    COMMON           14     13      14
    BANK0            80      0      26
    BANK1            80      0       0
    BANK2            80      0       0

Pointer List with Targets:

    LHalf_NumBuilder@Block	PTR const struct BlockSet size(1) Largest target is 21
		 -> NumberBlocks(BANK0[21]), 


Critical Paths under _main in COMMON

    _main->_Hour_deconstruct
    _Hour_deconstruct->___awdiv

Critical Paths under _main in BANK0

    None.

Critical Paths under _main in BANK1

    None.

Critical Paths under _main in BANK2

    None.

Call Graph Tables:

 ---------------------------------------------------------------------------------
 (Depth) Function   	        Calls       Base Space   Used Autos Params    Refs
 ---------------------------------------------------------------------------------
 (0) _main                                                 2     2      0    5068
                     _Character_Line
                   _Hour_deconstruct
                   _LHalf_NumBuilder
                  _SYSTEM_Initialize
 ---------------------------------------------------------------------------------
 (1) _SYSTEM_Initialize                                    0     0      0       0
              _OSCILLATOR_Initialize
             _PIN_MANAGER_Initialize
                     _WDT_Initialize
 ---------------------------------------------------------------------------------
 (2) _WDT_Initialize                                       0     0      0       0
 ---------------------------------------------------------------------------------
 (2) _PIN_MANAGER_Initialize                               0     0      0       0
 ---------------------------------------------------------------------------------
 (2) _OSCILLATOR_Initialize                                0     0      0       0
 ---------------------------------------------------------------------------------
 (1) _LHalf_NumBuilder                                     5     3      2    3892
                                              0 COMMON     5     3      2
 ---------------------------------------------------------------------------------
 (1) _Hour_deconstruct                                     4     3      1    1042
                                              9 COMMON     4     3      1
                            ___awdiv
                            ___awmod
 ---------------------------------------------------------------------------------
 (2) ___awmod                                              7     3      4     448
                                              0 COMMON     7     3      4
 ---------------------------------------------------------------------------------
 (2) ___awdiv                                              9     5      4     452
                                              0 COMMON     9     5      4
 ---------------------------------------------------------------------------------
 (1) _Character_Line                                       2     2      0      66
                                              0 COMMON     2     2      0
 ---------------------------------------------------------------------------------
 Estimated maximum stack depth 2
 ---------------------------------------------------------------------------------

 Call Graph Graphs:

 _main (ROOT)
   _Character_Line
   _Hour_deconstruct
     ___awdiv
     ___awmod
   _LHalf_NumBuilder
   _SYSTEM_Initialize
     _OSCILLATOR_Initialize
     _PIN_MANAGER_Initialize
     _WDT_Initialize

 Address spaces:
Name               Size   Autos  Total    Cost      Usage
BIGRAM              F0      0       0       0        0.0%
EEDATA             100      0       0       0        0.0%
NULL                 0      0       0       0        0.0%
CODE                 0      0       0       0        0.0%
BITCOMMON            E      0       0       1        0.0%
BITSFR0              0      0       0       1        0.0%
SFR0                 0      0       0       1        0.0%
COMMON               E      D       E       2      100.0%
BITSFR1              0      0       0       2        0.0%
SFR1                 0      0       0       2        0.0%
BITSFR2              0      0       0       3        0.0%
SFR2                 0      0       0       3        0.0%
STACK                0      0       0       3        0.0%
BITSFR3              0      0       0       4        0.0%
SFR3                 0      0       0       4        0.0%
ABS                  0      0      28       4        0.0%
BITBANK0            50      0       0       5        0.0%
BITSFR4              0      0       0       5        0.0%
SFR4                 0      0       0       5        0.0%
BANK0               50      0      1A       6       32.5%
BITSFR5              0      0       0       6        0.0%
SFR5                 0      0       0       6        0.0%
BITBANK1            50      0       0       7        0.0%
BITSFR6              0      0       0       7        0.0%
SFR6                 0      0       0       7        0.0%
BANK1               50      0       0       8        0.0%
BITSFR7              0      0       0       8        0.0%
SFR7                 0      0       0       8        0.0%
BITBANK2            50      0       0       9        0.0%
BITSFR8              0      0       0       9        0.0%
SFR8                 0      0       0       9        0.0%
BANK2               50      0       0      10        0.0%
BITSFR9              0      0       0      10        0.0%
SFR9                 0      0       0      10        0.0%
BITSFR10             0      0       0      11        0.0%
SFR10                0      0       0      11        0.0%
DATA                 0      0      28      11        0.0%
BITSFR11             0      0       0      12        0.0%
SFR11                0      0       0      12        0.0%
BITSFR12             0      0       0      13        0.0%
SFR12                0      0       0      13        0.0%
BITSFR13             0      0       0      14        0.0%
SFR13                0      0       0      14        0.0%
BITSFR14             0      0       0      15        0.0%
SFR14                0      0       0      15        0.0%
BITSFR15             0      0       0      16        0.0%
SFR15                0      0       0      16        0.0%
BITSFR16             0      0       0      17        0.0%
SFR16                0      0       0      17        0.0%
BITSFR17             0      0       0      18        0.0%
SFR17                0      0       0      18        0.0%
BITSFR18             0      0       0      19        0.0%
SFR18                0      0       0      19        0.0%
BITSFR19             0      0       0      20        0.0%
SFR19                0      0       0      20        0.0%
BITSFR20             0      0       0      21        0.0%
SFR20                0      0       0      21        0.0%
BITSFR21             0      0       0      22        0.0%
SFR21                0      0       0      22        0.0%
BITSFR22             0      0       0      23        0.0%
SFR22                0      0       0      23        0.0%
BITSFR23             0      0       0      24        0.0%
SFR23                0      0       0      24        0.0%
BITSFR24             0      0       0      25        0.0%
SFR24                0      0       0      25        0.0%
BITSFR25             0      0       0      26        0.0%
SFR25                0      0       0      26        0.0%
BITSFR26             0      0       0      27        0.0%
SFR26                0      0       0      27        0.0%
BITSFR27             0      0       0      28        0.0%
SFR27                0      0       0      28        0.0%
BITSFR28             0      0       0      29        0.0%
SFR28                0      0       0      29        0.0%
BITSFR29             0      0       0      30        0.0%
SFR29                0      0       0      30        0.0%
BITSFR30             0      0       0      31        0.0%
SFR30                0      0       0      31        0.0%
BITSFR31             0      0       0      32        0.0%
SFR31                0      0       0      32        0.0%


Microchip Technology PIC Macro Assembler V2.45 build 20230818022343 
Symbol Table                                                                                   Tue Dec 26 19:50:52 2023

                            l25 0157                              l51 0100                              l60 019E  
                            l45 0117                              l48 010D                              l81 07EC  
                            l66 0127                              l82 07EE                              l67 012C  
                  ___awdiv@sign 0076                             l106 0173                             l107 0173  
                           l412 0250                             l425 01F1                    ___awmod@sign 0076  
                           wreg 0009                            l1101 0152                            l1111 01F2  
                          l1103 0107                            l1121 0202                            l1113 01F3  
                          l1201 019D                            l1105 010A                            l1211 012B  
                          l1131 0216                            l1123 0207                            l1115 01F7  
                          l1107 010B                            l1205 0119                            l1141 0236  
                          l1133 021B                            l1125 020B                            l1117 01FC  
                          l1301 0448                            l1221 0267                            l1109 00FD  
                          l1207 011F                            l1151 024C                            l1143 0237  
                          l1135 021F                            l1127 020D                            l1119 01FE  
                          l1303 045A                            l1311 048E                            l1231 02AB  
                          l1223 0278                            l1215 0252                            l1209 0123  
                          l1145 023C                            l1137 0223                            l1129 0213  
                          l1161 01A9                            l1401 06AF                            l1321 04C7  
                          l1313 0494                            l1305 046A                            l1241 02E1  
                          l1233 02BA                            l1225 0287                            l1217 0257  
                          l1139 0232                            l1147 0242                            l1171 01BD  
                          l1163 01AB                            l1155 019F                            l1411 06E7  
                          l1403 06C1                            l1331 050F                            l1323 04D9  
                          l1315 04A3                            l1307 047C                            l1251 0326  
                          l1243 02F0                            l1235 02CB                            l1227 0298  
                          l1219 0265                            l1091 0142                            l1149 0247  
                          l1181 01D8                            l1173 01C2                            l1165 01AF  
                          l1157 01A0                            l1421 071C                            l1413 06E9  
                          l1405 06C3                            l1341 0537                            l1333 0511  
                          l1325 04DB                            l1317 04A5                            l1309 047E  
                          l1261 035E                            l1253 0328                            l1245 02F2  
                          l1237 02CD                            l1229 029A                            l1093 0145  
                          l1183 01DD                            l1175 01C6                            l1167 01B4  
                          l1159 01A4                            l1423 072D                            l1415 06FA  
                          l1431 075E                            l1407 06D3                            l1351 057E  
                          l1343 0548                            l1327 04ED                            l1319 04B7  
                          l1335 0521                            l1271 0397                            l1255 033A  
                          l1247 0304                            l1263 036E                            l1239 02DC  
                          l1095 0146                            l1177 01CA                            l1169 01BA  
                          l1185 01E3                            l1441 0795                            l1433 0764  
                          l1425 073C                            l1417 0709                            l1409 06D9  
                          l1361 05B8                            l1353 058E                            l1345 0558  
                          l1337 0527                            l1329 04FD                            l1281 03DC  
                          l1273 03A7                            l1265 0374                            l1257 034A  
                          l1249 0314                            l1097 0149                            l1193 010E  
                          l1187 01E8                            l1179 01D4                            l1195 0176  
                          l1451 07DB                            l1443 07A7                            l1435 0772  
                          l1427 074D                            l1419 071A                            l1371 05FA  
                          l1363 05C6                            l1355 05A0                            l1347 056A  
                          l1339 0535                            l1291 0412                            l1283 03ED  
                          l1275 03B9                            l1267 0383                            l1259 035C  
                          l1099 014B                            l1189 01ED                            l1197 017C  
                          l1453 07DD                            l1445 07A9                            l1437 0774  
                          l1429 074F                            l1381 0631                            l1373 05FC  
                          l1365 05C8                            l1357 05A2                            l1349 056C  
                          l1293 0414                            l1285 03EF                            l1277 03BB  
                          l1269 0385                            l1461 015B                            l1199 018D  
                          l1447 07BB                            l1439 0785                            l1391 0669  
                          l1375 060E                            l1367 05D9                            l1383 0640  
                          l1359 05B2                            l1295 0425                            l1279 03CD  
                          l1287 03FE                            l1463 0169                            l1449 07CA  
                          l1393 0679                            l1385 0646                            l1377 061E  
                          l1369 05E8                            l1297 0434                            l1289 0404  
                          l1457 0158                            l1395 068B                            l1387 0655  
                          l1379 062F                            l1299 0446                            l1459 015B  
                          l1397 068D                            l1389 0657                            l1399 069F  
                          u1200 0242                            u1120 01F7                            u1201 0241  
                          u1121 01F6                            u1210 0247                            u1130 0202  
                          u1211 0246                            u1131 0201                            u1140 0213  
                          u1300 01E8                            u1220 01A4                            u2004 0684  
                          u1141 0212                            u1301 01E7                            u1221 01A3  
                          u2005 0683                            u1230 01AF                            u1310 017C  
                          u2014 0696                            u1231 01AE                            u1311 017B  
                          u2015 0695                            u1320 011F                            u1160 0223  
                          u1240 01BA                            u2104 0724                            u2024 06A8  
                          u1321 011E                            u1161 0222                            u1241 01B9  
                          u2105 0723                            u2025 06A7                            u2114 0735  
                          u2050 06D9                            u2034 06BA                            u1330 0257  
                          u1155 0217                            u2115 0734                            u2051 06D8  
                          u2035 06B9                            u1331 0256                            u1180 0232  
                          u1260 01CA                            u2204 07C3                            u2140 0764  
                          u2124 0746                            u2044 06CC                            u1420 02E1  
                          u1404 02C4                            u1181 0231                            u1261 01C9  
                          u2205 07C2                            u2141 0763                            u2125 0745  
                          u2045 06CB                            u1421 02E0                            u1405 02C3  
                          _LATA 010C                            u1270 01D4                            u2214 07D4  
                          u2134 0757                            u1510 0374                            u1414 02D5  
                          _LATB 010D                            u1175 0224                            u1271 01D3  
                          u1255 01BE                            u2215 07D3                            u2135 0756  
                          u1511 0373                            u1415 02D4                            u2224 07E5  
                          u2064 06E1                            u1600 0404                            u1504 0367  
                          u1344 025F                            u1185 022E                            u2225 07E4  
                          u2065 06E0                            u1601 0403                            u1505 0366  
                          u1345 025E                            u1290 01E3                            u2154 076C  
                          u2074 06F1                            u1434 02EA                            u1354 026F  
                          u1195 0238                            u1291 01E2                            u1275 01D0  
                          u2155 076B                            u2075 06F0                            u1435 02E9  
                          u1355 026E                            u2164 077C                            u2084 0702  
                          u1524 037D                            u1444 02FB                            u1364 0280  
                          u1285 01D9                            u2165 077B                            u2085 0701  
                          u1525 037C                            u1445 02FA                            u1365 027F  
                          u2174 078E                            u2094 0713                            u1614 040C  
                          u1534 038E                            u1454 030D                            u1374 0291  
                          u2175 078D                            u2095 0712                            u1615 040B  
                          u1535 038D                            u1455 030C                            u1375 0290  
                          u2184 07A0                            u1704 049D                            u1624 041C  
                          u1544 03A0                            u1464 031F                            u1384 02A2  
                          u2185 079F                            u1705 049C                            u1625 041B  
                          u1545 039F                            u1465 031E                            u1385 02A1  
                          u2194 07B2                            u1714 04AE                            u1634 042D  
                          u1554 03B2                            u1474 0331                            u1394 02B3  
                          u2195 07B1                            u1715 04AD                            u1635 042C  
                          u1555 03B1                            u1475 0330                            u1395 02B2  
                          u1804 053F                            u1724 04C0                            u1644 043F  
                          u1564 03C4                            u1484 0343                            u1805 053E  
                          u1725 04BF                            u1645 043E                            u1565 03C3  
                          u1485 0342                            u1814 0551                            u1734 04D2  
                          u1654 0451                            u1574 03D5                            u1494 0355  
                          u1815 0550                            u1735 04D1                            u1655 0450  
                          u1575 03D4                            u1495 0354                            u1904 05E1  
                          u1824 0563                            u1744 04E4                            u1664 0463  
                          u1584 03E6                            u1905 05E0                            u1825 0562  
                          u1745 04E3                            u1665 0462                            u1585 03E5  
                          u1914 05F3                            u1834 0575                            u1754 04F6  
                          u1690 0494                            u1674 0475                            u1594 03F7  
                          u1915 05F2                            u1835 0574                            u1755 04F5  
                          u1691 0493                            u1675 0474                            u1595 03F6  
                          u1924 0605                            u1844 0587                            u1780 0527  
                          u1764 0508                            u1684 0487                            u1925 0604  
                          u1845 0586                            u1781 0526                            u1765 0507  
                          u1685 0486                            u1934 0617                            u1870 05B8  
                          u1854 0599                            u1774 051A                            u1935 0616  
                          u1871 05B7                            u1855 0598                            u1775 0519  
                          u1960 0646                            u1944 0628                            u1864 05AB  
                          u1961 0645                            u1945 0627                            u1865 05AA  
                          u1954 0639                            u1794 052F                            u1955 0638  
                          u1795 052E                            u1884 05C0                            u1885 05BF  
                          u1974 064F                            u1894 05D0                            u1975 064E  
                          u1895 05CF                            u1984 0660                            u1985 065F  
                          u1994 0672                            u1995 0671                            _WPUA 020C  
                          _WPUB 020D    Character_Line@character_line 0039                            _main 0158  
                          fsr0h 0005                            fsr1h 0007                            fsr0l 0004  
                          indf1 0001                            fsr1l 0006                            btemp 007E  
                          start 0001           LHalf_NumBuilder@Block 0070           LHalf_NumBuilder@hours 0071  
 __end_of_OSCILLATOR_Initialize 010E                           ?_main 0070                 __end_of___awdiv 0251  
               __end_of___awmod 01F2                 ___awdiv@divisor 0070                 ___awdiv@counter 0075  
         Hour_deconstruct@hours 0079                           _TRISA 008C                           _TRISB 008D  
                _character_line 0035                  _WDT_Initialize 00FD                           status 0003  
                         wtemp0 007E                 __initialization 07EF                    __end_of_main 0175  
              ??_Character_Line 0070          LHalf_NumBuilder@Output 0038                          ??_main 007D  
        __end_of_WDT_Initialize 0101          Hour_deconstruct@Output 007D                ___awdiv@dividend 0072  
             ?_LHalf_NumBuilder 0070                          _ANSELA 018C                          _ANSELB 018D  
                        _BORCON 0116                          _OSCCON 0099              ??_LHalf_NumBuilder 0072  
                        _WDTCON 0097                _Hour_deconstruct 0175                       ??___awdiv 0074  
                     ??___awmod 0074                ___awdiv@quotient 0077                 ___awmod@divisor 0070  
               ___awmod@counter 0075                 ?_WDT_Initialize 0070               _SYSTEM_Initialize 010E  
       __end_of__initialization 07FE              ?_SYSTEM_Initialize 0070                  __pcstackCOMMON 0070  
                  __pidataBANK0 012D             ??_SYSTEM_Initialize 0070                  _OPTION_REGbits 0095  
     __end_of_SYSTEM_Initialize 0118                      __pbssBANK0 0038                      __pmaintext 0158  
                       _APFCON0 011D                         _APFCON1 011E                         _OSCTUNE 0098  
                       ___awdiv 01F2                         ___awmod 019F                         __ptext1 010E  
                       __ptext2 00FD                         __ptext3 0142                         __ptext4 0107  
                       __ptext5 0251                         __ptext6 0175                         __ptext7 019F  
                       __ptext8 01F2                         __ptext9 0118           _OSCILLATOR_Initialize 0107  
              ___awmod@dividend 0072        ??_PIN_MANAGER_Initialize 0070        __end_of_Hour_deconstruct 019F  
          end_of_initialization 07FE                         init_ram 0101                         initloop 0102  
              ??_WDT_Initialize 0070          ?_OSCILLATOR_Initialize 0070     Hour_deconstruct@access_line 007C  
           start_initialization 07EF  LHalf_NumBuilder@character_line 0074                     __pdataBANK0 0020  
                   __pbssCOMMON 007D                       ___latbits 0000                       __pnvBANK0 0035  
                     _char_line 0036          _PIN_MANAGER_Initialize 0142                _LHalf_NumBuilder 0251  
                      ?___awdiv 0070                        ?___awmod 0070               ?_Hour_deconstruct 0079  
            ??_Hour_deconstruct 007A                     _display_num 0037                  _Character_Line 0118  
     Character_Line@access_line 0071         ??_OSCILLATOR_Initialize 0070                    _NumberBlocks 0020  
        __end_of_Character_Line 012D                 ?_Character_Line 0070        __end_of_LHalf_NumBuilder 07EF  
       ?_PIN_MANAGER_Initialize 0070  __end_of_PIN_MANAGER_Initialize 0158  
