

Microchip MPLAB XC8 Assembler V2.45 build 20230818022343 
                                                                                               Sun Dec 17 12:55:16 2023

Microchip MPLAB XC8 C Compiler v2.45 (Free license) build 20230818022343 Og1 
     1                           	processor	16LF1826
     2                           	pagewidth 120
     3                           	opt	flic
     4                           	psect	idataBANK0,global,class=CODE,delta=2,noexec
     5                           	psect	nvBANK0,global,class=BANK0,space=1,delta=1,noexec
     6                           	psect	cinit,global,class=CODE,merge=1,delta=2
     7                           	psect	bssBANK0,global,class=BANK0,space=1,delta=1,noexec
     8                           	psect	dataBANK0,global,class=BANK0,space=1,delta=1,noexec
     9                           	psect	inittext,global,class=CODE,delta=2
    10                           	psect	clrtext,global,class=CODE,delta=2
    11                           	psect	cstackCOMMON,global,class=COMMON,space=1,delta=1,noexec
    12                           	psect	cstackBANK0,global,class=BANK0,space=1,delta=1,noexec
    13                           	psect	maintext,global,class=CODE,merge=1,split=1,delta=2
    14                           	psect	text1,local,class=CODE,merge=1,delta=2
    15                           	psect	text2,local,class=CODE,merge=1,delta=2,group=1
    16                           	psect	text3,local,class=CODE,merge=1,delta=2,group=1
    17                           	psect	text4,local,class=CODE,merge=1,delta=2
    18                           	psect	text5,local,class=CODE,merge=1,delta=2
    19                           	psect	text6,local,class=CODE,merge=1,delta=2
    20                           	psect	text7,local,class=CODE,merge=1,delta=2
    21                           	psect	text8,local,class=CODE,merge=1,delta=2
    22                           	psect	text9,local,class=CODE,merge=1,delta=2
    23                           	psect	config,global,abs,ovrld,class=CONFIG,space=4,delta=2,noexec
    24                           	dabs	1,0x7E,2
    25     0000                     
    26                           ; Generated 06/07/2023 GMT
    27                           ; 
    28                           ; Copyright © 2023, Microchip Technology Inc. and its subsidiaries ("Microchip")
    29                           ; All rights reserved.
    30                           ; 
    31                           ; This software is developed by Microchip Technology Inc. and its subsidiaries ("Microch
      +                          ip").
    32                           ; 
    33                           ; Redistribution and use in source and binary forms, with or without modification, are
    34                           ; permitted provided that the following conditions are met:
    35                           ; 
    36                           ;     1. Redistributions of source code must retain the above copyright notice, this lis
      +                          t of
    37                           ;        conditions and the following disclaimer.
    38                           ; 
    39                           ;     2. Redistributions in binary form must reproduce the above copyright notice, this 
      +                          list
    40                           ;        of conditions and the following disclaimer in the documentation and/or other
    41                           ;        materials provided with the distribution. Publication is not required when
    42                           ;        this file is used in an embedded application.
    43                           ; 
    44                           ;     3. Microchip's name may not be used to endorse or promote products derived from th
      +                          is
    45                           ;        software without specific prior written permission.
    46                           ; 
    47                           ; THIS SOFTWARE IS PROVIDED BY MICROCHIP "AS IS" AND ANY EXPRESS OR IMPLIED WARRANTIES,
    48                           ; INCLUDING, BUT NOT LIMITED TO, THE IMPLIED WARRANTIES OF MERCHANTABILITY AND FITNESS F
      +                          OR
    49                           ; PURPOSE ARE DISCLAIMED.  IN NO EVENT SHALL MICROCHIP BE LIABLE FOR ANY DIRECT, INDIREC
      +                          T,
    50                           ; INCIDENTAL, SPECIAL, EXEMPLARY, OR CONSEQUENTIAL DAMAGES (INCLUDING BUT NOT LIMITED TO
    51                           ; PROCUREMENT OF SUBSTITUTE GOODS OR SERVICES; LOSS OF USE, DATA OR PROFITS; OR BUSINESS
    52                           ; INTERRUPTION) HOWSOEVER CAUSED AND ON ANY THEORY OF LIABILITY, WHETHER IN CONTRACT, ST
      +                          RICT
    53                           ; LIABILITY, OR TORT (INCLUDING NEGLIGENCE OR OTHERWISE) ARISING IN ANY WAY OUT OF THE U
      +                          SE OF
    54                           ; THIS SOFTWARE, EVEN IF ADVISED OF THE POSSIBILITY OF SUCH DAMAGE.
    55                           ; 
    56                           ; 
    57                           ; Code-generator required, PIC16LF1826 Definitions
    58                           ; 
    59                           ; SFR Addresses
    60     0000                     	;# 
    61     0001                     	;# 
    62     0002                     	;# 
    63     0003                     	;# 
    64     0004                     	;# 
    65     0005                     	;# 
    66     0006                     	;# 
    67     0007                     	;# 
    68     0008                     	;# 
    69     0009                     	;# 
    70     000A                     	;# 
    71     000B                     	;# 
    72     000C                     	;# 
    73     000D                     	;# 
    74     0011                     	;# 
    75     0012                     	;# 
    76     0015                     	;# 
    77     0016                     	;# 
    78     0016                     	;# 
    79     0017                     	;# 
    80     0018                     	;# 
    81     0019                     	;# 
    82     001A                     	;# 
    83     001B                     	;# 
    84     001C                     	;# 
    85     001E                     	;# 
    86     001F                     	;# 
    87     008C                     	;# 
    88     008D                     	;# 
    89     0091                     	;# 
    90     0092                     	;# 
    91     0095                     	;# 
    92     0096                     	;# 
    93     0097                     	;# 
    94     0098                     	;# 
    95     0099                     	;# 
    96     009A                     	;# 
    97     009B                     	;# 
    98     009B                     	;# 
    99     009C                     	;# 
   100     009D                     	;# 
   101     009E                     	;# 
   102     010C                     	;# 
   103     010D                     	;# 
   104     0111                     	;# 
   105     0112                     	;# 
   106     0113                     	;# 
   107     0114                     	;# 
   108     0115                     	;# 
   109     0116                     	;# 
   110     0117                     	;# 
   111     0118                     	;# 
   112     0119                     	;# 
   113     011A                     	;# 
   114     011B                     	;# 
   115     011D                     	;# 
   116     011E                     	;# 
   117     018C                     	;# 
   118     018D                     	;# 
   119     0191                     	;# 
   120     0191                     	;# 
   121     0192                     	;# 
   122     0193                     	;# 
   123     0193                     	;# 
   124     0193                     	;# 
   125     0194                     	;# 
   126     0195                     	;# 
   127     0196                     	;# 
   128     0199                     	;# 
   129     019A                     	;# 
   130     019B                     	;# 
   131     019B                     	;# 
   132     019B                     	;# 
   133     019B                     	;# 
   134     019C                     	;# 
   135     019C                     	;# 
   136     019D                     	;# 
   137     019E                     	;# 
   138     019F                     	;# 
   139     020C                     	;# 
   140     020D                     	;# 
   141     0211                     	;# 
   142     0211                     	;# 
   143     0212                     	;# 
   144     0212                     	;# 
   145     0213                     	;# 
   146     0213                     	;# 
   147     0214                     	;# 
   148     0214                     	;# 
   149     0215                     	;# 
   150     0215                     	;# 
   151     0215                     	;# 
   152     0216                     	;# 
   153     0216                     	;# 
   154     0217                     	;# 
   155     0217                     	;# 
   156     0291                     	;# 
   157     0291                     	;# 
   158     0292                     	;# 
   159     0293                     	;# 
   160     0294                     	;# 
   161     0295                     	;# 
   162     0295                     	;# 
   163     0296                     	;# 
   164     0394                     	;# 
   165     0395                     	;# 
   166     0396                     	;# 
   167     039A                     	;# 
   168     039C                     	;# 
   169     039D                     	;# 
   170     039E                     	;# 
   171     039F                     	;# 
   172     0FE4                     	;# 
   173     0FE5                     	;# 
   174     0FE6                     	;# 
   175     0FE7                     	;# 
   176     0FE8                     	;# 
   177     0FE9                     	;# 
   178     0FEA                     	;# 
   179     0FEB                     	;# 
   180     0FED                     	;# 
   181     0FEE                     	;# 
   182     0FEF                     	;# 
   183     0000                     	;# 
   184     0001                     	;# 
   185     0002                     	;# 
   186     0003                     	;# 
   187     0004                     	;# 
   188     0005                     	;# 
   189     0006                     	;# 
   190     0007                     	;# 
   191     0008                     	;# 
   192     0009                     	;# 
   193     000A                     	;# 
   194     000B                     	;# 
   195     000C                     	;# 
   196     000D                     	;# 
   197     0011                     	;# 
   198     0012                     	;# 
   199     0015                     	;# 
   200     0016                     	;# 
   201     0016                     	;# 
   202     0017                     	;# 
   203     0018                     	;# 
   204     0019                     	;# 
   205     001A                     	;# 
   206     001B                     	;# 
   207     001C                     	;# 
   208     001E                     	;# 
   209     001F                     	;# 
   210     008C                     	;# 
   211     008D                     	;# 
   212     0091                     	;# 
   213     0092                     	;# 
   214     0095                     	;# 
   215     0096                     	;# 
   216     0097                     	;# 
   217     0098                     	;# 
   218     0099                     	;# 
   219     009A                     	;# 
   220     009B                     	;# 
   221     009B                     	;# 
   222     009C                     	;# 
   223     009D                     	;# 
   224     009E                     	;# 
   225     010C                     	;# 
   226     010D                     	;# 
   227     0111                     	;# 
   228     0112                     	;# 
   229     0113                     	;# 
   230     0114                     	;# 
   231     0115                     	;# 
   232     0116                     	;# 
   233     0117                     	;# 
   234     0118                     	;# 
   235     0119                     	;# 
   236     011A                     	;# 
   237     011B                     	;# 
   238     011D                     	;# 
   239     011E                     	;# 
   240     018C                     	;# 
   241     018D                     	;# 
   242     0191                     	;# 
   243     0191                     	;# 
   244     0192                     	;# 
   245     0193                     	;# 
   246     0193                     	;# 
   247     0193                     	;# 
   248     0194                     	;# 
   249     0195                     	;# 
   250     0196                     	;# 
   251     0199                     	;# 
   252     019A                     	;# 
   253     019B                     	;# 
   254     019B                     	;# 
   255     019B                     	;# 
   256     019B                     	;# 
   257     019C                     	;# 
   258     019C                     	;# 
   259     019D                     	;# 
   260     019E                     	;# 
   261     019F                     	;# 
   262     020C                     	;# 
   263     020D                     	;# 
   264     0211                     	;# 
   265     0211                     	;# 
   266     0212                     	;# 
   267     0212                     	;# 
   268     0213                     	;# 
   269     0213                     	;# 
   270     0214                     	;# 
   271     0214                     	;# 
   272     0215                     	;# 
   273     0215                     	;# 
   274     0215                     	;# 
   275     0216                     	;# 
   276     0216                     	;# 
   277     0217                     	;# 
   278     0217                     	;# 
   279     0291                     	;# 
   280     0291                     	;# 
   281     0292                     	;# 
   282     0293                     	;# 
   283     0294                     	;# 
   284     0295                     	;# 
   285     0295                     	;# 
   286     0296                     	;# 
   287     0394                     	;# 
   288     0395                     	;# 
   289     0396                     	;# 
   290     039A                     	;# 
   291     039C                     	;# 
   292     039D                     	;# 
   293     039E                     	;# 
   294     039F                     	;# 
   295     0FE4                     	;# 
   296     0FE5                     	;# 
   297     0FE6                     	;# 
   298     0FE7                     	;# 
   299     0FE8                     	;# 
   300     0FE9                     	;# 
   301     0FEA                     	;# 
   302     0FEB                     	;# 
   303     0FED                     	;# 
   304     0FEE                     	;# 
   305     0FEF                     	;# 
   306     0000                     	;# 
   307     0001                     	;# 
   308     0002                     	;# 
   309     0003                     	;# 
   310     0004                     	;# 
   311     0005                     	;# 
   312     0006                     	;# 
   313     0007                     	;# 
   314     0008                     	;# 
   315     0009                     	;# 
   316     000A                     	;# 
   317     000B                     	;# 
   318     000C                     	;# 
   319     000D                     	;# 
   320     0011                     	;# 
   321     0012                     	;# 
   322     0015                     	;# 
   323     0016                     	;# 
   324     0016                     	;# 
   325     0017                     	;# 
   326     0018                     	;# 
   327     0019                     	;# 
   328     001A                     	;# 
   329     001B                     	;# 
   330     001C                     	;# 
   331     001E                     	;# 
   332     001F                     	;# 
   333     008C                     	;# 
   334     008D                     	;# 
   335     0091                     	;# 
   336     0092                     	;# 
   337     0095                     	;# 
   338     0096                     	;# 
   339     0097                     	;# 
   340     0098                     	;# 
   341     0099                     	;# 
   342     009A                     	;# 
   343     009B                     	;# 
   344     009B                     	;# 
   345     009C                     	;# 
   346     009D                     	;# 
   347     009E                     	;# 
   348     010C                     	;# 
   349     010D                     	;# 
   350     0111                     	;# 
   351     0112                     	;# 
   352     0113                     	;# 
   353     0114                     	;# 
   354     0115                     	;# 
   355     0116                     	;# 
   356     0117                     	;# 
   357     0118                     	;# 
   358     0119                     	;# 
   359     011A                     	;# 
   360     011B                     	;# 
   361     011D                     	;# 
   362     011E                     	;# 
   363     018C                     	;# 
   364     018D                     	;# 
   365     0191                     	;# 
   366     0191                     	;# 
   367     0192                     	;# 
   368     0193                     	;# 
   369     0193                     	;# 
   370     0193                     	;# 
   371     0194                     	;# 
   372     0195                     	;# 
   373     0196                     	;# 
   374     0199                     	;# 
   375     019A                     	;# 
   376     019B                     	;# 
   377     019B                     	;# 
   378     019B                     	;# 
   379     019B                     	;# 
   380     019C                     	;# 
   381     019C                     	;# 
   382     019D                     	;# 
   383     019E                     	;# 
   384     019F                     	;# 
   385     020C                     	;# 
   386     020D                     	;# 
   387     0211                     	;# 
   388     0211                     	;# 
   389     0212                     	;# 
   390     0212                     	;# 
   391     0213                     	;# 
   392     0213                     	;# 
   393     0214                     	;# 
   394     0214                     	;# 
   395     0215                     	;# 
   396     0215                     	;# 
   397     0215                     	;# 
   398     0216                     	;# 
   399     0216                     	;# 
   400     0217                     	;# 
   401     0217                     	;# 
   402     0291                     	;# 
   403     0291                     	;# 
   404     0292                     	;# 
   405     0293                     	;# 
   406     0294                     	;# 
   407     0295                     	;# 
   408     0295                     	;# 
   409     0296                     	;# 
   410     0394                     	;# 
   411     0395                     	;# 
   412     0396                     	;# 
   413     039A                     	;# 
   414     039C                     	;# 
   415     039D                     	;# 
   416     039E                     	;# 
   417     039F                     	;# 
   418     0FE4                     	;# 
   419     0FE5                     	;# 
   420     0FE6                     	;# 
   421     0FE7                     	;# 
   422     0FE8                     	;# 
   423     0FE9                     	;# 
   424     0FEA                     	;# 
   425     0FEB                     	;# 
   426     0FED                     	;# 
   427     0FEE                     	;# 
   428     0FEF                     	;# 
   429     0000                     	;# 
   430     0001                     	;# 
   431     0002                     	;# 
   432     0003                     	;# 
   433     0004                     	;# 
   434     0005                     	;# 
   435     0006                     	;# 
   436     0007                     	;# 
   437     0008                     	;# 
   438     0009                     	;# 
   439     000A                     	;# 
   440     000B                     	;# 
   441     000C                     	;# 
   442     000D                     	;# 
   443     0011                     	;# 
   444     0012                     	;# 
   445     0015                     	;# 
   446     0016                     	;# 
   447     0016                     	;# 
   448     0017                     	;# 
   449     0018                     	;# 
   450     0019                     	;# 
   451     001A                     	;# 
   452     001B                     	;# 
   453     001C                     	;# 
   454     001E                     	;# 
   455     001F                     	;# 
   456     008C                     	;# 
   457     008D                     	;# 
   458     0091                     	;# 
   459     0092                     	;# 
   460     0095                     	;# 
   461     0096                     	;# 
   462     0097                     	;# 
   463     0098                     	;# 
   464     0099                     	;# 
   465     009A                     	;# 
   466     009B                     	;# 
   467     009B                     	;# 
   468     009C                     	;# 
   469     009D                     	;# 
   470     009E                     	;# 
   471     010C                     	;# 
   472     010D                     	;# 
   473     0111                     	;# 
   474     0112                     	;# 
   475     0113                     	;# 
   476     0114                     	;# 
   477     0115                     	;# 
   478     0116                     	;# 
   479     0117                     	;# 
   480     0118                     	;# 
   481     0119                     	;# 
   482     011A                     	;# 
   483     011B                     	;# 
   484     011D                     	;# 
   485     011E                     	;# 
   486     018C                     	;# 
   487     018D                     	;# 
   488     0191                     	;# 
   489     0191                     	;# 
   490     0192                     	;# 
   491     0193                     	;# 
   492     0193                     	;# 
   493     0193                     	;# 
   494     0194                     	;# 
   495     0195                     	;# 
   496     0196                     	;# 
   497     0199                     	;# 
   498     019A                     	;# 
   499     019B                     	;# 
   500     019B                     	;# 
   501     019B                     	;# 
   502     019B                     	;# 
   503     019C                     	;# 
   504     019C                     	;# 
   505     019D                     	;# 
   506     019E                     	;# 
   507     019F                     	;# 
   508     020C                     	;# 
   509     020D                     	;# 
   510     0211                     	;# 
   511     0211                     	;# 
   512     0212                     	;# 
   513     0212                     	;# 
   514     0213                     	;# 
   515     0213                     	;# 
   516     0214                     	;# 
   517     0214                     	;# 
   518     0215                     	;# 
   519     0215                     	;# 
   520     0215                     	;# 
   521     0216                     	;# 
   522     0216                     	;# 
   523     0217                     	;# 
   524     0217                     	;# 
   525     0291                     	;# 
   526     0291                     	;# 
   527     0292                     	;# 
   528     0293                     	;# 
   529     0294                     	;# 
   530     0295                     	;# 
   531     0295                     	;# 
   532     0296                     	;# 
   533     0394                     	;# 
   534     0395                     	;# 
   535     0396                     	;# 
   536     039A                     	;# 
   537     039C                     	;# 
   538     039D                     	;# 
   539     039E                     	;# 
   540     039F                     	;# 
   541     0FE4                     	;# 
   542     0FE5                     	;# 
   543     0FE6                     	;# 
   544     0FE7                     	;# 
   545     0FE8                     	;# 
   546     0FE9                     	;# 
   547     0FEA                     	;# 
   548     0FEB                     	;# 
   549     0FED                     	;# 
   550     0FEE                     	;# 
   551     0FEF                     	;# 
   552                           
   553                           	psect	idataBANK0
   554     00A8                     __pidataBANK0:
   555                           
   556                           ;initializer for _NumberBlocks
   557     00A8  341E               	retlw	30
   558     00A9  3421               	retlw	33
   559     00AA  3404               	retlw	4
   560     00AB  340C               	retlw	12
   561     00AC  3414               	retlw	20
   562     00AD  343F               	retlw	63
   563     00AE  3402               	retlw	2
   564     00AF  3420               	retlw	32
   565     00B0  340E               	retlw	14
   566     00B1  3401               	retlw	1
   567     00B2  3406               	retlw	6
   568     00B3  340A               	retlw	10
   569     00B4  3412               	retlw	18
   570     00B5  3422               	retlw	34
   571     00B6  343E               	retlw	62
   572     00B7  342E               	retlw	46
   573     00B8  3430               	retlw	48
   574     00B9  3408               	retlw	8
   575     00BA  3410               	retlw	16
   576     00BB  3423               	retlw	35
   577     00BC  341D               	retlw	29
   578                           
   579                           	psect	nvBANK0
   580     0045                     __pnvBANK0:
   581     0045                     _character_line:
   582     0045                     	ds	1
   583     0046                     _display_num:
   584     0046                     	ds	1
   585     0097                     _WDTCON	set	151
   586     0098                     _OSCTUNE	set	152
   587     0099                     _OSCCON	set	153
   588     0095                     _OPTION_REGbits	set	149
   589     008D                     _TRISB	set	141
   590     008C                     _TRISA	set	140
   591     0116                     _BORCON	set	278
   592     011E                     _APFCON1	set	286
   593     011D                     _APFCON0	set	285
   594     010D                     _LATB	set	269
   595     010C                     _LATA	set	268
   596     018C                     _ANSELA	set	396
   597     018D                     _ANSELB	set	397
   598     020C                     _WPUA	set	524
   599     020D                     _WPUB	set	525
   600                           
   601                           	psect	cinit
   602     07EA                     start_initialization:	
   603                           ; #config settings
   604                           
   605     07EA                     __initialization:
   606                           
   607                           ; Initialize objects allocated to BANK0
   608     07EA  30A8               	movlw	low __pidataBANK0
   609     07EB  0084               	movwf	4
   610     07EC  3080               	movlw	(high __pidataBANK0)| (0+128)
   611     07ED  0085               	movwf	5
   612     07EE  3020               	movlw	low __pdataBANK0
   613     07EF  0086               	movwf	6
   614     07F0  3000               	movlw	high __pdataBANK0
   615     07F1  0087               	movwf	7
   616     07F2  3015               	movlw	21
   617     07F3  3180  2091  3187   	fcall	init_ram
   618                           
   619                           ; Clear objects allocated to BANK0
   620     07F6  3035               	movlw	low __pbssBANK0
   621     07F7  0084               	movwf	4
   622     07F8  3000               	movlw	high __pbssBANK0
   623     07F9  0085               	movwf	5
   624     07FA  3010               	movlw	16
   625     07FB  3180  208B  3187   	fcall	clear_ram0
   626     07FE                     end_of_initialization:	
   627                           ;End of C runtime variable initialization code
   628                           
   629     07FE                     __end_of__initialization:
   630     07FE  0020               	movlb	0
   631     07FF  28D3               	ljmp	_main	;jump to C main() function
   632                           
   633                           	psect	bssBANK0
   634     0035                     __pbssBANK0:
   635     0035                     _Flags:
   636     0035                     	ds	3
   637     0038                     _time_of_day:
   638     0038                     	ds	2
   639     003A                     _char_line:
   640     003A                     	ds	1
   641     003B                     NumBuilder@Output:
   642     003B                     	ds	1
   643     003C                     Time_deconstruct@character_line:
   644     003C                     	ds	1
   645     003D                     _renderer_outputs:
   646     003D                     	ds	4
   647     0041                     _tod_outputs:
   648     0041                     	ds	4
   649                           
   650                           	psect	dataBANK0
   651     0020                     __pdataBANK0:
   652     0020                     _NumberBlocks:
   653     0020                     	ds	21
   654                           
   655                           	psect	inittext
   656     0091                     init_ram:
   657     0091  00FE               	movwf	btemp
   658     0092                     initloop:
   659     0092  0012               	moviw fsr0++
   660     0093  001E               	movwi fsr1++
   661     0094  0BFE               	decfsz	btemp,f
   662     0095  2892               	goto	initloop
   663     0096  3400               	retlw	0
   664                           
   665                           	psect	clrtext
   666     008B                     clear_ram0:	
   667                           ;	Called with FSR0 containing the base address, and
   668                           ;	WREG with the size to clear
   669                           
   670     008B  0064               	clrwdt	;clear the watchdog before getting into this loop
   671     008C                     clrloop0:
   672     008C  0180               	clrf	0	;clear RAM location pointed to by FSR
   673     008D  3101               	addfsr 0,1
   674     008E  0B89               	decfsz	9,f	;Have we reached the end of clearing yet?
   675     008F  288C               	goto	clrloop0	;have we reached the end yet?
   676     0090  3400               	retlw	0	;all done for this memory range, return
   677                           
   678                           	psect	cstackCOMMON
   679     0070                     __pcstackCOMMON:
   680     0070                     ?_OSCILLATOR_Initialize:
   681     0070                     ??_OSCILLATOR_Initialize:	
   682                           ; 1 bytes @ 0x0
   683                           
   684     0070                     ?_WDT_Initialize:	
   685                           ; 1 bytes @ 0x0
   686                           
   687     0070                     ??_WDT_Initialize:	
   688                           ; 1 bytes @ 0x0
   689                           
   690     0070                     ?_PIN_MANAGER_Initialize:	
   691                           ; 1 bytes @ 0x0
   692                           
   693     0070                     ??_PIN_MANAGER_Initialize:	
   694                           ; 1 bytes @ 0x0
   695                           
   696     0070                     ?_SYSTEM_Initialize:	
   697                           ; 1 bytes @ 0x0
   698                           
   699     0070                     ??_SYSTEM_Initialize:	
   700                           ; 1 bytes @ 0x0
   701                           
   702     0070                     ?_NumBuilder:	
   703                           ; 1 bytes @ 0x0
   704                           
   705     0070                     ?_Renderer:	
   706                           ; 1 bytes @ 0x0
   707                           
   708     0070                     ?_main:	
   709                           ; 1 bytes @ 0x0
   710                           
   711     0070                     ?___awdiv:	
   712                           ; 1 bytes @ 0x0
   713                           
   714     0070                     ?___awmod:	
   715                           ; 2 bytes @ 0x0
   716                           
   717     0070                     NumBuilder@Block:	
   718                           ; 2 bytes @ 0x0
   719                           
   720     0070                     Renderer@right_common_line:	
   721                           ; 1 bytes @ 0x0
   722                           
   723     0070                     ___awdiv@divisor:	
   724                           ; 1 bytes @ 0x0
   725                           
   726     0070                     ___awmod@divisor:	
   727                           ; 2 bytes @ 0x0
   728                           
   729                           
   730                           ; 2 bytes @ 0x0
   731     0070                     	ds	1
   732     0071                     NumBuilder@time:
   733     0071                     Renderer@access_line:	
   734                           ; 1 bytes @ 0x1
   735                           
   736                           
   737                           ; 1 bytes @ 0x1
   738     0071                     	ds	1
   739     0072                     ??_NumBuilder:
   740     0072                     Renderer@shift_reg_outputs:	
   741                           ; 1 bytes @ 0x2
   742                           
   743     0072                     ___awdiv@dividend:	
   744                           ; 1 bytes @ 0x2
   745                           
   746     0072                     ___awmod@dividend:	
   747                           ; 2 bytes @ 0x2
   748                           
   749                           
   750                           ; 2 bytes @ 0x2
   751     0072                     	ds	1
   752     0073                     ??_Renderer:
   753                           
   754                           ; 1 bytes @ 0x3
   755     0073                     	ds	1
   756     0074                     ??___awdiv:
   757     0074                     ??___awmod:	
   758                           ; 1 bytes @ 0x4
   759                           
   760     0074                     NumBuilder@character_line:	
   761                           ; 1 bytes @ 0x4
   762                           
   763                           
   764                           ; 1 bytes @ 0x4
   765     0074                     	ds	1
   766     0075                     ___awdiv@counter:
   767     0075                     ___awmod@counter:	
   768                           ; 1 bytes @ 0x5
   769                           
   770                           
   771                           ; 1 bytes @ 0x5
   772     0075                     	ds	1
   773     0076                     Renderer@left_common_line:
   774     0076                     ___awdiv@sign:	
   775                           ; 1 bytes @ 0x6
   776                           
   777     0076                     ___awmod@sign:	
   778                           ; 1 bytes @ 0x6
   779                           
   780                           
   781                           ; 1 bytes @ 0x6
   782     0076                     	ds	1
   783     0077                     ___awdiv@quotient:
   784                           
   785                           ; 2 bytes @ 0x7
   786     0077                     	ds	2
   787     0079                     ?_Time_deconstruct:
   788     0079                     Time_deconstruct@hours:	
   789                           ; 1 bytes @ 0x9
   790                           
   791                           
   792                           ; 1 bytes @ 0x9
   793     0079                     	ds	1
   794     007A                     Time_deconstruct@minutes:
   795                           
   796                           ; 1 bytes @ 0xA
   797     007A                     	ds	1
   798     007B                     Time_deconstruct@output:
   799                           
   800                           ; 1 bytes @ 0xB
   801     007B                     	ds	1
   802     007C                     ??_Time_deconstruct:
   803                           
   804                           ; 1 bytes @ 0xC
   805     007C                     	ds	2
   806     007E                     ??_main:
   807                           
   808                           	psect	cstackBANK0
   809     0047                     __pcstackBANK0:	
   810                           ; 1 bytes @ 0xE
   811                           
   812     0047                     Time_deconstruct@access_line:
   813                           
   814                           ; 1 bytes @ 0x0
   815     0047                     	ds	1
   816                           
   817                           	psect	maintext
   818     00D3                     __pmaintext:	
   819 ;;
   820 ;;Main: autosize = 0, tempsize = 0, incstack = 0, save=0
   821 ;;
   822 ;; *************** function _main *****************
   823 ;; Defined at:
   824 ;;		line 74 in file "PerfBoardClock.c"
   825 ;; Parameters:    Size  Location     Type
   826 ;;		None
   827 ;; Auto vars:     Size  Location     Type
   828 ;;  AccessLine      1    0        unsigned char 
   829 ;;  Minutes         1    0        unsigned char 
   830 ;;  Hours           1    0        unsigned char 
   831 ;; Return value:  Size  Location     Type
   832 ;;                  1    wreg      void 
   833 ;; Registers used:
   834 ;;		wreg, fsr1l, fsr1h, status,2, status,0, pclath, cstack
   835 ;; Tracked objects:
   836 ;;		On entry : B1F/0
   837 ;;		On exit  : 0/0
   838 ;;		Unchanged: 0/0
   839 ;; Data sizes:     COMMON   BANK0   BANK1   BANK2
   840 ;;      Params:         0       0       0       0
   841 ;;      Locals:         0       0       0       0
   842 ;;      Temps:          0       0       0       0
   843 ;;      Totals:         0       0       0       0
   844 ;;Total ram usage:        0 bytes
   845 ;; Hardware stack levels required when called: 2
   846 ;; This function calls:
   847 ;;		_NumBuilder
   848 ;;		_Renderer
   849 ;;		_SYSTEM_Initialize
   850 ;;		_Time_deconstruct
   851 ;; This function is called by:
   852 ;;		Startup code after reset
   853 ;; This function uses a non-reentrant model
   854 ;;
   855                           
   856     00D3                     _main:	
   857                           ;psect for function _main
   858                           
   859     00D3                     l1503:	
   860                           ;incstack = 0
   861                           ; Regs used in _main: [wreg+fsr1l+fsr1h+status,2+status,0+pclath+cstack]
   862                           
   863                           
   864                           ;PerfBoardClock.c: 76:     SYSTEM_Initialize();
   865     00D3  3180  209E  3180   	fcall	_SYSTEM_Initialize
   866     00D6                     l1505:
   867     00D6                     l1507:
   868     00D6                     l1509:
   869     00D6                     l1511:
   870                           
   871                           ;PerfBoardClock.c: 99:     display_num = Time_deconstruct(AccessLine, Hours, Minutes, &t
      +                          od_outputs);
   872     00D6  300B               	movlw	11
   873     00D7  00F9               	movwf	Time_deconstruct@hours
   874     00D8  3023               	movlw	35
   875     00D9  00FA               	movwf	Time_deconstruct@minutes
   876     00DA  3041               	movlw	(low (_tod_outputs| 0))& (0+255)
   877     00DB  00FB               	movwf	Time_deconstruct@output
   878     00DC  3009               	movlw	9
   879     00DD  3181  21ED  3180   	fcall	_Time_deconstruct
   880     00E0  0020               	movlb	0	; select bank0
   881     00E1  00C6               	movwf	_display_num
   882     00E2                     l1513:
   883                           
   884                           ;PerfBoardClock.c: 101:     character_line = NumBuilder(char_line, &NumberBlocks, displa
      +                          y_num);
   885     00E2  3020               	movlw	(low (_NumberBlocks| 0))& (0+255)
   886     00E3  00F0               	movwf	NumBuilder@Block
   887     00E4  0846               	movf	_display_num,w
   888     00E5  00F1               	movwf	NumBuilder@time
   889     00E6  3000               	movlw	0
   890     00E7  3182  224C  3180   	fcall	_NumBuilder
   891     00EA  0020               	movlb	0	; select bank0
   892     00EB  00C5               	movwf	_character_line
   893     00EC                     l1515:
   894                           
   895                           ;PerfBoardClock.c: 103:     Renderer(character_line, character_line, AccessLine, &render
      +                          er_outputs);
   896     00EC  0845               	movf	_character_line,w
   897     00ED  00F0               	movwf	Renderer@right_common_line
   898     00EE  3009               	movlw	9
   899     00EF  00F1               	movwf	Renderer@access_line
   900     00F0  303D               	movlw	(low (_renderer_outputs| 0))& (0+255)
   901     00F1  00F2               	movwf	Renderer@shift_reg_outputs
   902     00F2  0845               	movf	_character_line,w
   903     00F3  3180  20F8  3180   	fcall	_Renderer
   904     00F6                     l118:	
   905                           ;PerfBoardClock.c: 105:     while (1) {
   906                           
   907     00F6                     l119:	
   908                           ;PerfBoardClock.c: 107:     }
   909                           
   910     00F6  28F6               	goto	l118
   911     00F7  2801               	ljmp	start
   912     00F8                     __end_of_main:
   913                           
   914                           	psect	text1
   915     01ED                     __ptext1:	
   916 ;; *************** function _Time_deconstruct *****************
   917 ;; Defined at:
   918 ;;		line 48 in file "rendering.c"
   919 ;; Parameters:    Size  Location     Type
   920 ;;  access_line     1    wreg     const unsigned char 
   921 ;;  hours           1    9[COMMON] const unsigned char 
   922 ;;  minutes         1   10[COMMON] const unsigned char 
   923 ;;  output          1   11[COMMON] PTR struct TensOnes
   924 ;;		 -> tod_outputs(4), 
   925 ;; Auto vars:     Size  Location     Type
   926 ;;  access_line     1    0[BANK0 ] const unsigned char 
   927 ;; Return value:  Size  Location     Type
   928 ;;                  1    wreg      unsigned char 
   929 ;; Registers used:
   930 ;;		wreg, fsr1l, fsr1h, status,2, status,0, pclath, cstack
   931 ;; Tracked objects:
   932 ;;		On entry : 0/0
   933 ;;		On exit  : 0/0
   934 ;;		Unchanged: 0/0
   935 ;; Data sizes:     COMMON   BANK0   BANK1   BANK2
   936 ;;      Params:         3       0       0       0
   937 ;;      Locals:         0       1       0       0
   938 ;;      Temps:          2       0       0       0
   939 ;;      Totals:         5       1       0       0
   940 ;;Total ram usage:        6 bytes
   941 ;; Hardware stack levels used: 1
   942 ;; Hardware stack levels required when called: 1
   943 ;; This function calls:
   944 ;;		___awdiv
   945 ;;		___awmod
   946 ;; This function is called by:
   947 ;;		_main
   948 ;; This function uses a non-reentrant model
   949 ;;
   950                           
   951     01ED                     _Time_deconstruct:	
   952                           ;psect for function _Time_deconstruct
   953                           
   954                           
   955                           ;incstack = 0
   956                           ; Regs used in _Time_deconstruct: [wreg+fsr1l+fsr1h+status,2+status,0+pclath+cstack]
   957                           ;Time_deconstruct@access_line stored from wreg
   958     01ED  0020               	movlb	0	; select bank0
   959     01EE  00C7               	movwf	Time_deconstruct@access_line
   960     01EF                     l1233:
   961                           
   962                           ;rendering.c: 49:    static Uint8 character_line = 0;;rendering.c: 51:    if(access_line
      +                           < 6){
   963     01EF  3006               	movlw	6
   964     01F0  0247               	subwf	Time_deconstruct@access_line,w
   965     01F1  1803               	skipnc
   966     01F2  29F4               	goto	u1351
   967     01F3  29F5               	goto	u1350
   968     01F4                     u1351:
   969     01F4  2A1F               	goto	l1241
   970     01F5                     u1350:
   971     01F5                     l1235:
   972                           
   973                           ;rendering.c: 52:       character_line = access_line;
   974     01F5  0847               	movf	Time_deconstruct@access_line,w
   975     01F6  00BC               	movwf	Time_deconstruct@character_line
   976     01F7                     l1237:
   977                           
   978                           ;rendering.c: 53:       output->HourTens = hours / 10;
   979     01F7  0A7B               	incf	Time_deconstruct@output,w
   980     01F8  0086               	movwf	6
   981     01F9  0187               	clrf	7
   982     01FA  300A               	movlw	10
   983     01FB  00F0               	movwf	___awdiv@divisor
   984     01FC  3000               	movlw	0
   985     01FD  00F1               	movwf	___awdiv@divisor+1
   986     01FE  0879               	movf	Time_deconstruct@hours,w
   987     01FF  00FC               	movwf	??_Time_deconstruct
   988     0200  01FD               	clrf	??_Time_deconstruct+1
   989     0201  087C               	movf	??_Time_deconstruct,w
   990     0202  00F2               	movwf	___awdiv@dividend
   991     0203  087D               	movf	??_Time_deconstruct+1,w
   992     0204  00F3               	movwf	___awdiv@dividend+1
   993     0205  3181  218E  3181   	fcall	___awdiv
   994     0208  0870               	movf	?___awdiv,w
   995     0209  0081               	movwf	1
   996     020A                     l1239:
   997                           
   998                           ;rendering.c: 54:       output->MinuteTens = minutes / 10;
   999     020A  087B               	movf	Time_deconstruct@output,w
  1000     020B  3E03               	addlw	3
  1001     020C  0086               	movwf	6
  1002     020D  0187               	clrf	7
  1003     020E  300A               	movlw	10
  1004     020F  00F0               	movwf	___awdiv@divisor
  1005     0210  3000               	movlw	0
  1006     0211  00F1               	movwf	___awdiv@divisor+1
  1007     0212  087A               	movf	Time_deconstruct@minutes,w
  1008     0213  00FC               	movwf	??_Time_deconstruct
  1009     0214  01FD               	clrf	??_Time_deconstruct+1
  1010     0215  087C               	movf	??_Time_deconstruct,w
  1011     0216  00F2               	movwf	___awdiv@dividend
  1012     0217  087D               	movf	??_Time_deconstruct+1,w
  1013     0218  00F3               	movwf	___awdiv@dividend+1
  1014     0219  3181  218E  3181   	fcall	___awdiv
  1015     021C  0870               	movf	?___awdiv,w
  1016     021D  0081               	movwf	1
  1017                           
  1018                           ;rendering.c: 55:    }
  1019     021E  2A49               	goto	l1247
  1020     021F                     l1241:
  1021                           
  1022                           ;rendering.c: 57:       character_line = access_line - 6;
  1023     021F  0847               	movf	Time_deconstruct@access_line,w
  1024     0220  3EFA               	addlw	250
  1025     0221  00BC               	movwf	Time_deconstruct@character_line
  1026     0222                     l1243:
  1027                           
  1028                           ;rendering.c: 58:       output->HourOnes = hours % 10;
  1029     0222  087B               	movf	Time_deconstruct@output,w
  1030     0223  0086               	movwf	6
  1031     0224  0187               	clrf	7
  1032     0225  300A               	movlw	10
  1033     0226  00F0               	movwf	___awmod@divisor
  1034     0227  3000               	movlw	0
  1035     0228  00F1               	movwf	___awmod@divisor+1
  1036     0229  0879               	movf	Time_deconstruct@hours,w
  1037     022A  00FC               	movwf	??_Time_deconstruct
  1038     022B  01FD               	clrf	??_Time_deconstruct+1
  1039     022C  087C               	movf	??_Time_deconstruct,w
  1040     022D  00F2               	movwf	___awmod@dividend
  1041     022E  087D               	movf	??_Time_deconstruct+1,w
  1042     022F  00F3               	movwf	___awmod@dividend+1
  1043     0230  3181  213B  3181   	fcall	___awmod
  1044     0233  0870               	movf	?___awmod,w
  1045     0234  0081               	movwf	1
  1046     0235                     l1245:
  1047                           
  1048                           ;rendering.c: 59:       output->MinuteOnes = minutes % 10;
  1049     0235  087B               	movf	Time_deconstruct@output,w
  1050     0236  3E02               	addlw	2
  1051     0237  0086               	movwf	6
  1052     0238  0187               	clrf	7
  1053     0239  300A               	movlw	10
  1054     023A  00F0               	movwf	___awmod@divisor
  1055     023B  3000               	movlw	0
  1056     023C  00F1               	movwf	___awmod@divisor+1
  1057     023D  087A               	movf	Time_deconstruct@minutes,w
  1058     023E  00FC               	movwf	??_Time_deconstruct
  1059     023F  01FD               	clrf	??_Time_deconstruct+1
  1060     0240  087C               	movf	??_Time_deconstruct,w
  1061     0241  00F2               	movwf	___awmod@dividend
  1062     0242  087D               	movf	??_Time_deconstruct+1,w
  1063     0243  00F3               	movwf	___awmod@dividend+1
  1064     0244  3181  213B  3181   	fcall	___awmod
  1065     0247  0870               	movf	?___awmod,w
  1066     0248  0081               	movwf	1
  1067     0249                     l1247:
  1068                           
  1069                           ;rendering.c: 61:    return character_line;
  1070     0249  0020               	movlb	0	; select bank0
  1071     024A  083C               	movf	Time_deconstruct@character_line,w
  1072     024B                     l64:
  1073     024B  0008               	return
  1074     024C                     __end_of_Time_deconstruct:
  1075                           
  1076                           	psect	text2
  1077     013B                     __ptext2:	
  1078 ;; *************** function ___awmod *****************
  1079 ;; Defined at:
  1080 ;;		line 5 in file "C:\Program Files\Microchip\xc8\v2.45\pic\sources\c99\common\awmod.c"
  1081 ;; Parameters:    Size  Location     Type
  1082 ;;  divisor         2    0[COMMON] int 
  1083 ;;  dividend        2    2[COMMON] int 
  1084 ;; Auto vars:     Size  Location     Type
  1085 ;;  sign            1    6[COMMON] unsigned char 
  1086 ;;  counter         1    5[COMMON] unsigned char 
  1087 ;; Return value:  Size  Location     Type
  1088 ;;                  2    0[COMMON] int 
  1089 ;; Registers used:
  1090 ;;		wreg, status,2, status,0
  1091 ;; Tracked objects:
  1092 ;;		On entry : 0/0
  1093 ;;		On exit  : 0/0
  1094 ;;		Unchanged: 0/0
  1095 ;; Data sizes:     COMMON   BANK0   BANK1   BANK2
  1096 ;;      Params:         4       0       0       0
  1097 ;;      Locals:         2       0       0       0
  1098 ;;      Temps:          1       0       0       0
  1099 ;;      Totals:         7       0       0       0
  1100 ;;Total ram usage:        7 bytes
  1101 ;; Hardware stack levels used: 1
  1102 ;; This function calls:
  1103 ;;		Nothing
  1104 ;; This function is called by:
  1105 ;;		_Time_deconstruct
  1106 ;; This function uses a non-reentrant model
  1107 ;;
  1108                           
  1109     013B                     ___awmod:	
  1110                           ;psect for function ___awmod
  1111                           
  1112     013B                     l1193:	
  1113                           ;incstack = 0
  1114                           ; Regs used in ___awmod: [wreg+status,2+status,0]
  1115                           
  1116     013B  01F6               	clrf	___awmod@sign
  1117     013C                     l1195:
  1118     013C  1FF3               	btfss	___awmod@dividend+1,7
  1119     013D  293F               	goto	u1261
  1120     013E  2940               	goto	u1260
  1121     013F                     u1261:
  1122     013F  2947               	goto	l1201
  1123     0140                     u1260:
  1124     0140                     l1197:
  1125     0140  09F2               	comf	___awmod@dividend,f
  1126     0141  09F3               	comf	___awmod@dividend+1,f
  1127     0142  0AF2               	incf	___awmod@dividend,f
  1128     0143  1903               	skipnz
  1129     0144  0AF3               	incf	___awmod@dividend+1,f
  1130     0145                     l1199:
  1131     0145  01F6               	clrf	___awmod@sign
  1132     0146  0AF6               	incf	___awmod@sign,f
  1133     0147                     l1201:
  1134     0147  1FF1               	btfss	___awmod@divisor+1,7
  1135     0148  294A               	goto	u1271
  1136     0149  294B               	goto	u1270
  1137     014A                     u1271:
  1138     014A  2950               	goto	l1205
  1139     014B                     u1270:
  1140     014B                     l1203:
  1141     014B  09F0               	comf	___awmod@divisor,f
  1142     014C  09F1               	comf	___awmod@divisor+1,f
  1143     014D  0AF0               	incf	___awmod@divisor,f
  1144     014E  1903               	skipnz
  1145     014F  0AF1               	incf	___awmod@divisor+1,f
  1146     0150                     l1205:
  1147     0150  0870               	movf	___awmod@divisor,w
  1148     0151  0471               	iorwf	___awmod@divisor+1,w
  1149     0152  1903               	btfsc	3,2
  1150     0153  2955               	goto	u1281
  1151     0154  2956               	goto	u1280
  1152     0155                     u1281:
  1153     0155  297F               	goto	l1223
  1154     0156                     u1280:
  1155     0156                     l1207:
  1156     0156  01F5               	clrf	___awmod@counter
  1157     0157  0AF5               	incf	___awmod@counter,f
  1158     0158  2962               	goto	l1213
  1159     0159                     l1209:
  1160     0159  3001               	movlw	1
  1161     015A                     u1295:
  1162     015A  35F0               	lslf	___awmod@divisor,f
  1163     015B  0DF1               	rlf	___awmod@divisor+1,f
  1164     015C  0B89               	decfsz	9,f
  1165     015D  295A               	goto	u1295
  1166     015E                     l1211:
  1167     015E  3001               	movlw	1
  1168     015F  00F4               	movwf	??___awmod
  1169     0160  0874               	movf	??___awmod,w
  1170     0161  07F5               	addwf	___awmod@counter,f
  1171     0162                     l1213:
  1172     0162  1FF1               	btfss	___awmod@divisor+1,7
  1173     0163  2965               	goto	u1301
  1174     0164  2966               	goto	u1300
  1175     0165                     u1301:
  1176     0165  2959               	goto	l1209
  1177     0166                     u1300:
  1178     0166                     l1215:
  1179     0166  0871               	movf	___awmod@divisor+1,w
  1180     0167  0273               	subwf	___awmod@dividend+1,w
  1181     0168  1D03               	skipz
  1182     0169  296C               	goto	u1315
  1183     016A  0870               	movf	___awmod@divisor,w
  1184     016B  0272               	subwf	___awmod@dividend,w
  1185     016C                     u1315:
  1186     016C  1C03               	skipc
  1187     016D  296F               	goto	u1311
  1188     016E  2970               	goto	u1310
  1189     016F                     u1311:
  1190     016F  2974               	goto	l1219
  1191     0170                     u1310:
  1192     0170                     l1217:
  1193     0170  0870               	movf	___awmod@divisor,w
  1194     0171  02F2               	subwf	___awmod@dividend,f
  1195     0172  0871               	movf	___awmod@divisor+1,w
  1196     0173  3BF3               	subwfb	___awmod@dividend+1,f
  1197     0174                     l1219:
  1198     0174  3001               	movlw	1
  1199     0175                     u1325:
  1200     0175  36F1               	lsrf	___awmod@divisor+1,f
  1201     0176  0CF0               	rrf	___awmod@divisor,f
  1202     0177  0B89               	decfsz	9,f
  1203     0178  2975               	goto	u1325
  1204     0179                     l1221:
  1205     0179  3001               	movlw	1
  1206     017A  02F5               	subwf	___awmod@counter,f
  1207     017B  1D03               	btfss	3,2
  1208     017C  297E               	goto	u1331
  1209     017D  297F               	goto	u1330
  1210     017E                     u1331:
  1211     017E  2966               	goto	l1215
  1212     017F                     u1330:
  1213     017F                     l1223:
  1214     017F  0876               	movf	___awmod@sign,w
  1215     0180  1903               	btfsc	3,2
  1216     0181  2983               	goto	u1341
  1217     0182  2984               	goto	u1340
  1218     0183                     u1341:
  1219     0183  2989               	goto	l1227
  1220     0184                     u1340:
  1221     0184                     l1225:
  1222     0184  09F2               	comf	___awmod@dividend,f
  1223     0185  09F3               	comf	___awmod@dividend+1,f
  1224     0186  0AF2               	incf	___awmod@dividend,f
  1225     0187  1903               	skipnz
  1226     0188  0AF3               	incf	___awmod@dividend+1,f
  1227     0189                     l1227:
  1228     0189  0873               	movf	___awmod@dividend+1,w
  1229     018A  00F1               	movwf	?___awmod+1
  1230     018B  0872               	movf	___awmod@dividend,w
  1231     018C  00F0               	movwf	?___awmod
  1232     018D                     l437:
  1233     018D  0008               	return
  1234     018E                     __end_of___awmod:
  1235                           
  1236                           	psect	text3
  1237     018E                     __ptext3:	
  1238 ;; *************** function ___awdiv *****************
  1239 ;; Defined at:
  1240 ;;		line 5 in file "C:\Program Files\Microchip\xc8\v2.45\pic\sources\c99\common\awdiv.c"
  1241 ;; Parameters:    Size  Location     Type
  1242 ;;  divisor         2    0[COMMON] int 
  1243 ;;  dividend        2    2[COMMON] int 
  1244 ;; Auto vars:     Size  Location     Type
  1245 ;;  quotient        2    7[COMMON] int 
  1246 ;;  sign            1    6[COMMON] unsigned char 
  1247 ;;  counter         1    5[COMMON] unsigned char 
  1248 ;; Return value:  Size  Location     Type
  1249 ;;                  2    0[COMMON] int 
  1250 ;; Registers used:
  1251 ;;		wreg, status,2, status,0
  1252 ;; Tracked objects:
  1253 ;;		On entry : 0/0
  1254 ;;		On exit  : 0/0
  1255 ;;		Unchanged: 0/0
  1256 ;; Data sizes:     COMMON   BANK0   BANK1   BANK2
  1257 ;;      Params:         4       0       0       0
  1258 ;;      Locals:         4       0       0       0
  1259 ;;      Temps:          1       0       0       0
  1260 ;;      Totals:         9       0       0       0
  1261 ;;Total ram usage:        9 bytes
  1262 ;; Hardware stack levels used: 1
  1263 ;; This function calls:
  1264 ;;		Nothing
  1265 ;; This function is called by:
  1266 ;;		_Time_deconstruct
  1267 ;; This function uses a non-reentrant model
  1268 ;;
  1269                           
  1270     018E                     ___awdiv:	
  1271                           ;psect for function ___awdiv
  1272                           
  1273     018E                     l1149:	
  1274                           ;incstack = 0
  1275                           ; Regs used in ___awdiv: [wreg+status,2+status,0]
  1276                           
  1277     018E  01F6               	clrf	___awdiv@sign
  1278     018F                     l1151:
  1279     018F  1FF1               	btfss	___awdiv@divisor+1,7
  1280     0190  2992               	goto	u1161
  1281     0191  2993               	goto	u1160
  1282     0192                     u1161:
  1283     0192  299A               	goto	l1157
  1284     0193                     u1160:
  1285     0193                     l1153:
  1286     0193  09F0               	comf	___awdiv@divisor,f
  1287     0194  09F1               	comf	___awdiv@divisor+1,f
  1288     0195  0AF0               	incf	___awdiv@divisor,f
  1289     0196  1903               	skipnz
  1290     0197  0AF1               	incf	___awdiv@divisor+1,f
  1291     0198                     l1155:
  1292     0198  01F6               	clrf	___awdiv@sign
  1293     0199  0AF6               	incf	___awdiv@sign,f
  1294     019A                     l1157:
  1295     019A  1FF3               	btfss	___awdiv@dividend+1,7
  1296     019B  299D               	goto	u1171
  1297     019C  299E               	goto	u1170
  1298     019D                     u1171:
  1299     019D  29A7               	goto	l1163
  1300     019E                     u1170:
  1301     019E                     l1159:
  1302     019E  09F2               	comf	___awdiv@dividend,f
  1303     019F  09F3               	comf	___awdiv@dividend+1,f
  1304     01A0  0AF2               	incf	___awdiv@dividend,f
  1305     01A1  1903               	skipnz
  1306     01A2  0AF3               	incf	___awdiv@dividend+1,f
  1307     01A3                     l1161:
  1308     01A3  3001               	movlw	1
  1309     01A4  00F4               	movwf	??___awdiv
  1310     01A5  0874               	movf	??___awdiv,w
  1311     01A6  06F6               	xorwf	___awdiv@sign,f
  1312     01A7                     l1163:
  1313     01A7  01F7               	clrf	___awdiv@quotient
  1314     01A8  01F8               	clrf	___awdiv@quotient+1
  1315     01A9                     l1165:
  1316     01A9  0870               	movf	___awdiv@divisor,w
  1317     01AA  0471               	iorwf	___awdiv@divisor+1,w
  1318     01AB  1903               	btfsc	3,2
  1319     01AC  29AE               	goto	u1181
  1320     01AD  29AF               	goto	u1180
  1321     01AE                     u1181:
  1322     01AE  29DE               	goto	l1185
  1323     01AF                     u1180:
  1324     01AF                     l1167:
  1325     01AF  01F5               	clrf	___awdiv@counter
  1326     01B0  0AF5               	incf	___awdiv@counter,f
  1327     01B1  29BB               	goto	l1173
  1328     01B2                     l1169:
  1329     01B2  3001               	movlw	1
  1330     01B3                     u1195:
  1331     01B3  35F0               	lslf	___awdiv@divisor,f
  1332     01B4  0DF1               	rlf	___awdiv@divisor+1,f
  1333     01B5  0B89               	decfsz	9,f
  1334     01B6  29B3               	goto	u1195
  1335     01B7                     l1171:
  1336     01B7  3001               	movlw	1
  1337     01B8  00F4               	movwf	??___awdiv
  1338     01B9  0874               	movf	??___awdiv,w
  1339     01BA  07F5               	addwf	___awdiv@counter,f
  1340     01BB                     l1173:
  1341     01BB  1FF1               	btfss	___awdiv@divisor+1,7
  1342     01BC  29BE               	goto	u1201
  1343     01BD  29BF               	goto	u1200
  1344     01BE                     u1201:
  1345     01BE  29B2               	goto	l1169
  1346     01BF                     u1200:
  1347     01BF                     l1175:
  1348     01BF  3001               	movlw	1
  1349     01C0                     u1215:
  1350     01C0  35F7               	lslf	___awdiv@quotient,f
  1351     01C1  0DF8               	rlf	___awdiv@quotient+1,f
  1352     01C2  0B89               	decfsz	9,f
  1353     01C3  29C0               	goto	u1215
  1354     01C4  0871               	movf	___awdiv@divisor+1,w
  1355     01C5  0273               	subwf	___awdiv@dividend+1,w
  1356     01C6  1D03               	skipz
  1357     01C7  29CA               	goto	u1225
  1358     01C8  0870               	movf	___awdiv@divisor,w
  1359     01C9  0272               	subwf	___awdiv@dividend,w
  1360     01CA                     u1225:
  1361     01CA  1C03               	skipc
  1362     01CB  29CD               	goto	u1221
  1363     01CC  29CE               	goto	u1220
  1364     01CD                     u1221:
  1365     01CD  29D3               	goto	l1181
  1366     01CE                     u1220:
  1367     01CE                     l1177:
  1368     01CE  0870               	movf	___awdiv@divisor,w
  1369     01CF  02F2               	subwf	___awdiv@dividend,f
  1370     01D0  0871               	movf	___awdiv@divisor+1,w
  1371     01D1  3BF3               	subwfb	___awdiv@dividend+1,f
  1372     01D2                     l1179:
  1373     01D2  1477               	bsf	___awdiv@quotient,0
  1374     01D3                     l1181:
  1375     01D3  3001               	movlw	1
  1376     01D4                     u1235:
  1377     01D4  36F1               	lsrf	___awdiv@divisor+1,f
  1378     01D5  0CF0               	rrf	___awdiv@divisor,f
  1379     01D6  0B89               	decfsz	9,f
  1380     01D7  29D4               	goto	u1235
  1381     01D8                     l1183:
  1382     01D8  3001               	movlw	1
  1383     01D9  02F5               	subwf	___awdiv@counter,f
  1384     01DA  1D03               	btfss	3,2
  1385     01DB  29DD               	goto	u1241
  1386     01DC  29DE               	goto	u1240
  1387     01DD                     u1241:
  1388     01DD  29BF               	goto	l1175
  1389     01DE                     u1240:
  1390     01DE                     l1185:
  1391     01DE  0876               	movf	___awdiv@sign,w
  1392     01DF  1903               	btfsc	3,2
  1393     01E0  29E2               	goto	u1251
  1394     01E1  29E3               	goto	u1250
  1395     01E2                     u1251:
  1396     01E2  29E8               	goto	l1189
  1397     01E3                     u1250:
  1398     01E3                     l1187:
  1399     01E3  09F7               	comf	___awdiv@quotient,f
  1400     01E4  09F8               	comf	___awdiv@quotient+1,f
  1401     01E5  0AF7               	incf	___awdiv@quotient,f
  1402     01E6  1903               	skipnz
  1403     01E7  0AF8               	incf	___awdiv@quotient+1,f
  1404     01E8                     l1189:
  1405     01E8  0878               	movf	___awdiv@quotient+1,w
  1406     01E9  00F1               	movwf	?___awdiv+1
  1407     01EA  0877               	movf	___awdiv@quotient,w
  1408     01EB  00F0               	movwf	?___awdiv
  1409     01EC                     l424:
  1410     01EC  0008               	return
  1411     01ED                     __end_of___awdiv:
  1412                           
  1413                           	psect	text4
  1414     009E                     __ptext4:	
  1415 ;; *************** function _SYSTEM_Initialize *****************
  1416 ;; Defined at:
  1417 ;;		line 50 in file "mcc_generated_files/mcc.c"
  1418 ;; Parameters:    Size  Location     Type
  1419 ;;		None
  1420 ;; Auto vars:     Size  Location     Type
  1421 ;;		None
  1422 ;; Return value:  Size  Location     Type
  1423 ;;                  1    wreg      void 
  1424 ;; Registers used:
  1425 ;;		wreg, status,2, status,0, pclath, cstack
  1426 ;; Tracked objects:
  1427 ;;		On entry : 0/0
  1428 ;;		On exit  : 0/0
  1429 ;;		Unchanged: 0/0
  1430 ;; Data sizes:     COMMON   BANK0   BANK1   BANK2
  1431 ;;      Params:         0       0       0       0
  1432 ;;      Locals:         0       0       0       0
  1433 ;;      Temps:          0       0       0       0
  1434 ;;      Totals:         0       0       0       0
  1435 ;;Total ram usage:        0 bytes
  1436 ;; Hardware stack levels used: 1
  1437 ;; Hardware stack levels required when called: 1
  1438 ;; This function calls:
  1439 ;;		_OSCILLATOR_Initialize
  1440 ;;		_PIN_MANAGER_Initialize
  1441 ;;		_WDT_Initialize
  1442 ;; This function is called by:
  1443 ;;		_main
  1444 ;; This function uses a non-reentrant model
  1445 ;;
  1446                           
  1447     009E                     _SYSTEM_Initialize:	
  1448                           ;psect for function _SYSTEM_Initialize
  1449                           
  1450     009E                     l1231:	
  1451                           ;incstack = 0
  1452                           ; Regs used in _SYSTEM_Initialize: [wreg+status,2+status,0+pclath+cstack]
  1453                           
  1454                           
  1455                           ;mcc_generated_files/mcc.c: 53:     PIN_MANAGER_Initialize();
  1456     009E  3180  20BD  3180   	fcall	_PIN_MANAGER_Initialize
  1457                           
  1458                           ;mcc_generated_files/mcc.c: 54:     OSCILLATOR_Initialize();
  1459     00A1  3180  2097  3180   	fcall	_OSCILLATOR_Initialize
  1460                           
  1461                           ;mcc_generated_files/mcc.c: 55:     WDT_Initialize();
  1462     00A4  3180  2087  3180   	fcall	_WDT_Initialize
  1463     00A7                     l45:
  1464     00A7  0008               	return
  1465     00A8                     __end_of_SYSTEM_Initialize:
  1466                           
  1467                           	psect	text5
  1468     0087                     __ptext5:	
  1469 ;; *************** function _WDT_Initialize *****************
  1470 ;; Defined at:
  1471 ;;		line 68 in file "mcc_generated_files/mcc.c"
  1472 ;; Parameters:    Size  Location     Type
  1473 ;;		None
  1474 ;; Auto vars:     Size  Location     Type
  1475 ;;		None
  1476 ;; Return value:  Size  Location     Type
  1477 ;;                  1    wreg      void 
  1478 ;; Registers used:
  1479 ;;		wreg
  1480 ;; Tracked objects:
  1481 ;;		On entry : 0/0
  1482 ;;		On exit  : 0/0
  1483 ;;		Unchanged: 0/0
  1484 ;; Data sizes:     COMMON   BANK0   BANK1   BANK2
  1485 ;;      Params:         0       0       0       0
  1486 ;;      Locals:         0       0       0       0
  1487 ;;      Temps:          0       0       0       0
  1488 ;;      Totals:         0       0       0       0
  1489 ;;Total ram usage:        0 bytes
  1490 ;; Hardware stack levels used: 1
  1491 ;; This function calls:
  1492 ;;		Nothing
  1493 ;; This function is called by:
  1494 ;;		_SYSTEM_Initialize
  1495 ;; This function uses a non-reentrant model
  1496 ;;
  1497                           
  1498     0087                     _WDT_Initialize:	
  1499                           ;psect for function _WDT_Initialize
  1500                           
  1501     0087                     l1147:	
  1502                           ;incstack = 0
  1503                           ; Regs used in _WDT_Initialize: [wreg]
  1504                           
  1505                           
  1506                           ;mcc_generated_files/mcc.c: 71:     WDTCON = 0x16;
  1507     0087  3016               	movlw	22
  1508     0088  0021               	movlb	1	; select bank1
  1509     0089  0097               	movwf	23	;volatile
  1510     008A                     l51:
  1511     008A  0008               	return
  1512     008B                     __end_of_WDT_Initialize:
  1513                           
  1514                           	psect	text6
  1515     00BD                     __ptext6:	
  1516 ;; *************** function _PIN_MANAGER_Initialize *****************
  1517 ;; Defined at:
  1518 ;;		line 55 in file "mcc_generated_files/pin_manager.c"
  1519 ;; Parameters:    Size  Location     Type
  1520 ;;		None
  1521 ;; Auto vars:     Size  Location     Type
  1522 ;;		None
  1523 ;; Return value:  Size  Location     Type
  1524 ;;                  1    wreg      void 
  1525 ;; Registers used:
  1526 ;;		wreg, status,2
  1527 ;; Tracked objects:
  1528 ;;		On entry : 0/0
  1529 ;;		On exit  : 0/0
  1530 ;;		Unchanged: 0/0
  1531 ;; Data sizes:     COMMON   BANK0   BANK1   BANK2
  1532 ;;      Params:         0       0       0       0
  1533 ;;      Locals:         0       0       0       0
  1534 ;;      Temps:          0       0       0       0
  1535 ;;      Totals:         0       0       0       0
  1536 ;;Total ram usage:        0 bytes
  1537 ;; Hardware stack levels used: 1
  1538 ;; This function calls:
  1539 ;;		Nothing
  1540 ;; This function is called by:
  1541 ;;		_SYSTEM_Initialize
  1542 ;; This function uses a non-reentrant model
  1543 ;;
  1544                           
  1545     00BD                     _PIN_MANAGER_Initialize:	
  1546                           ;psect for function _PIN_MANAGER_Initialize
  1547                           
  1548     00BD                     l1129:	
  1549                           ;incstack = 0
  1550                           ; Regs used in _PIN_MANAGER_Initialize: [wreg+status,2]
  1551                           
  1552                           
  1553                           ;mcc_generated_files/pin_manager.c: 60:     LATA = 0x15;
  1554     00BD  3015               	movlw	21
  1555     00BE  0022               	movlb	2	; select bank2
  1556     00BF  008C               	movwf	12	;volatile
  1557     00C0                     l1131:
  1558                           
  1559                           ;mcc_generated_files/pin_manager.c: 61:     LATB = 0x00;
  1560     00C0  018D               	clrf	13	;volatile
  1561     00C1                     l1133:
  1562                           
  1563                           ;mcc_generated_files/pin_manager.c: 66:     TRISA = 0xE0;
  1564     00C1  30E0               	movlw	224
  1565     00C2  0021               	movlb	1	; select bank1
  1566     00C3  008C               	movwf	12	;volatile
  1567     00C4                     l1135:
  1568                           
  1569                           ;mcc_generated_files/pin_manager.c: 67:     TRISB = 0xFF;
  1570     00C4  30FF               	movlw	255
  1571     00C5  008D               	movwf	13	;volatile
  1572     00C6                     l1137:
  1573                           
  1574                           ;mcc_generated_files/pin_manager.c: 72:     ANSELB = 0xFE;
  1575     00C6  30FE               	movlw	254
  1576     00C7  0023               	movlb	3	; select bank3
  1577     00C8  008D               	movwf	13	;volatile
  1578                           
  1579                           ;mcc_generated_files/pin_manager.c: 73:     ANSELA = 0x00;
  1580     00C9  018C               	clrf	12	;volatile
  1581                           
  1582                           ;mcc_generated_files/pin_manager.c: 78:     WPUB = 0x00;
  1583     00CA  0024               	movlb	4	; select bank4
  1584     00CB  018D               	clrf	13	;volatile
  1585                           
  1586                           ;mcc_generated_files/pin_manager.c: 79:     WPUA = 0x00;
  1587     00CC  018C               	clrf	12	;volatile
  1588     00CD                     l1139:
  1589                           
  1590                           ;mcc_generated_files/pin_manager.c: 80:     OPTION_REGbits.nWPUEN = 1;
  1591     00CD  0021               	movlb	1	; select bank1
  1592     00CE  1795               	bsf	21,7	;volatile
  1593                           
  1594                           ;mcc_generated_files/pin_manager.c: 86:     APFCON0 = 0x00;
  1595     00CF  0022               	movlb	2	; select bank2
  1596     00D0  019D               	clrf	29	;volatile
  1597                           
  1598                           ;mcc_generated_files/pin_manager.c: 87:     APFCON1 = 0x00;
  1599     00D1  019E               	clrf	30	;volatile
  1600     00D2                     l25:
  1601     00D2  0008               	return
  1602     00D3                     __end_of_PIN_MANAGER_Initialize:
  1603                           
  1604                           	psect	text7
  1605     0097                     __ptext7:	
  1606 ;; *************** function _OSCILLATOR_Initialize *****************
  1607 ;; Defined at:
  1608 ;;		line 58 in file "mcc_generated_files/mcc.c"
  1609 ;; Parameters:    Size  Location     Type
  1610 ;;		None
  1611 ;; Auto vars:     Size  Location     Type
  1612 ;;		None
  1613 ;; Return value:  Size  Location     Type
  1614 ;;                  1    wreg      void 
  1615 ;; Registers used:
  1616 ;;		wreg, status,2
  1617 ;; Tracked objects:
  1618 ;;		On entry : 0/0
  1619 ;;		On exit  : 0/0
  1620 ;;		Unchanged: 0/0
  1621 ;; Data sizes:     COMMON   BANK0   BANK1   BANK2
  1622 ;;      Params:         0       0       0       0
  1623 ;;      Locals:         0       0       0       0
  1624 ;;      Temps:          0       0       0       0
  1625 ;;      Totals:         0       0       0       0
  1626 ;;Total ram usage:        0 bytes
  1627 ;; Hardware stack levels used: 1
  1628 ;; This function calls:
  1629 ;;		Nothing
  1630 ;; This function is called by:
  1631 ;;		_SYSTEM_Initialize
  1632 ;; This function uses a non-reentrant model
  1633 ;;
  1634                           
  1635     0097                     _OSCILLATOR_Initialize:	
  1636                           ;psect for function _OSCILLATOR_Initialize
  1637                           
  1638     0097                     l1141:	
  1639                           ;incstack = 0
  1640                           ; Regs used in _OSCILLATOR_Initialize: [wreg+status,2]
  1641                           
  1642                           
  1643                           ;mcc_generated_files/mcc.c: 61:     OSCCON = 0x48;
  1644     0097  3048               	movlw	72
  1645     0098  0021               	movlb	1	; select bank1
  1646     0099  0099               	movwf	25	;volatile
  1647     009A                     l1143:
  1648                           
  1649                           ;mcc_generated_files/mcc.c: 63:     OSCTUNE = 0x00;
  1650     009A  0198               	clrf	24	;volatile
  1651     009B                     l1145:
  1652                           
  1653                           ;mcc_generated_files/mcc.c: 65:     BORCON = 0x00;
  1654     009B  0022               	movlb	2	; select bank2
  1655     009C  0196               	clrf	22	;volatile
  1656     009D                     l48:
  1657     009D  0008               	return
  1658     009E                     __end_of_OSCILLATOR_Initialize:
  1659                           
  1660                           	psect	text8
  1661     00F8                     __ptext8:	
  1662 ;; *************** function _Renderer *****************
  1663 ;; Defined at:
  1664 ;;		line 265 in file "rendering.c"
  1665 ;; Parameters:    Size  Location     Type
  1666 ;;  left_common_    1    wreg     unsigned char 
  1667 ;;  right_common    1    0[COMMON] unsigned char 
  1668 ;;  access_line     1    1[COMMON] unsigned char 
  1669 ;;  shift_reg_ou    1    2[COMMON] PTR struct Render
  1670 ;;		 -> renderer_outputs(4), 
  1671 ;; Auto vars:     Size  Location     Type
  1672 ;;  left_common_    1    6[COMMON] unsigned char 
  1673 ;; Return value:  Size  Location     Type
  1674 ;;                  1    wreg      void 
  1675 ;; Registers used:
  1676 ;;		wreg, fsr1l, fsr1h, status,2, status,0
  1677 ;; Tracked objects:
  1678 ;;		On entry : 0/0
  1679 ;;		On exit  : 0/0
  1680 ;;		Unchanged: 0/0
  1681 ;; Data sizes:     COMMON   BANK0   BANK1   BANK2
  1682 ;;      Params:         3       0       0       0
  1683 ;;      Locals:         1       0       0       0
  1684 ;;      Temps:          3       0       0       0
  1685 ;;      Totals:         7       0       0       0
  1686 ;;Total ram usage:        7 bytes
  1687 ;; Hardware stack levels used: 1
  1688 ;; This function calls:
  1689 ;;		Nothing
  1690 ;; This function is called by:
  1691 ;;		_main
  1692 ;; This function uses a non-reentrant model
  1693 ;;
  1694                           
  1695     00F8                     _Renderer:	
  1696                           ;psect for function _Renderer
  1697                           
  1698                           
  1699                           ;incstack = 0
  1700                           ; Regs used in _Renderer: [wreg+fsr1l+fsr1h+status,2+status,0]
  1701                           ;Renderer@left_common_line stored from wreg
  1702     00F8  00F6               	movwf	Renderer@left_common_line
  1703     00F9                     l1493:
  1704                           
  1705                           ;rendering.c: 267:    if(access_line < 8){
  1706     00F9  3008               	movlw	8
  1707     00FA  0271               	subwf	Renderer@access_line,w
  1708     00FB  1803               	skipnc
  1709     00FC  28FE               	goto	u2261
  1710     00FD  28FF               	goto	u2260
  1711     00FE                     u2261:
  1712     00FE  2917               	goto	l1497
  1713     00FF                     u2260:
  1714     00FF                     l1495:
  1715                           
  1716                           ;rendering.c: 268:       shift_reg_outputs->Access_Line_one = 0b10000000 >> access_line;
  1717     00FF  0872               	movf	Renderer@shift_reg_outputs,w
  1718     0100  3E02               	addlw	2
  1719     0101  0086               	movwf	6
  1720     0102  0187               	clrf	7
  1721     0103  0A71               	incf	Renderer@access_line,w
  1722     0104  00F3               	movwf	??_Renderer
  1723     0105  3080               	movlw	128
  1724     0106  00F4               	movwf	??_Renderer+1
  1725     0107  3000               	movlw	0
  1726     0108  00F5               	movwf	??_Renderer+2
  1727     0109  290D               	goto	u2274
  1728     010A                     u2275:
  1729     010A  0D75               	rlf	??_Renderer+2,w
  1730     010B  0CF5               	rrf	??_Renderer+2,f
  1731     010C  0CF4               	rrf	??_Renderer+1,f
  1732     010D                     u2274:
  1733     010D  0BF3               	decfsz	??_Renderer,f
  1734     010E  290A               	goto	u2275
  1735     010F  0874               	movf	??_Renderer+1,w
  1736     0110  0081               	movwf	1
  1737                           
  1738                           ;rendering.c: 269:       shift_reg_outputs->Access_Line_Two = 0;
  1739     0111  0872               	movf	Renderer@shift_reg_outputs,w
  1740     0112  3E03               	addlw	3
  1741     0113  0086               	movwf	6
  1742     0114  0187               	clrf	7
  1743     0115  0181               	clrf	1
  1744                           
  1745                           ;rendering.c: 270:    }else{
  1746     0116  2930               	goto	l1499
  1747     0117                     l1497:
  1748                           
  1749                           ;rendering.c: 271:       shift_reg_outputs->Access_Line_one = 0;
  1750     0117  0872               	movf	Renderer@shift_reg_outputs,w
  1751     0118  3E02               	addlw	2
  1752     0119  0086               	movwf	6
  1753     011A  0187               	clrf	7
  1754     011B  0181               	clrf	1
  1755                           
  1756                           ;rendering.c: 272:       shift_reg_outputs->Access_Line_Two = 0b10000000 >> (access_line
      +                           - 8);
  1757     011C  0872               	movf	Renderer@shift_reg_outputs,w
  1758     011D  3E03               	addlw	3
  1759     011E  0086               	movwf	6
  1760     011F  0187               	clrf	7
  1761     0120  30F8               	movlw	248
  1762     0121  0771               	addwf	Renderer@access_line,w
  1763     0122  00F3               	movwf	??_Renderer
  1764     0123  0AF3               	incf	??_Renderer,f
  1765     0124  3080               	movlw	128
  1766     0125  00F4               	movwf	??_Renderer+1
  1767     0126  3000               	movlw	0
  1768     0127  00F5               	movwf	??_Renderer+2
  1769     0128  292C               	goto	u2284
  1770     0129                     u2285:
  1771     0129  0D75               	rlf	??_Renderer+2,w
  1772     012A  0CF5               	rrf	??_Renderer+2,f
  1773     012B  0CF4               	rrf	??_Renderer+1,f
  1774     012C                     u2284:
  1775     012C  0BF3               	decfsz	??_Renderer,f
  1776     012D  2929               	goto	u2285
  1777     012E  0874               	movf	??_Renderer+1,w
  1778     012F  0081               	movwf	1
  1779     0130                     l1499:
  1780                           
  1781                           ;rendering.c: 275:    shift_reg_outputs->Common_Line_One = left_common_line;
  1782     0130  0872               	movf	Renderer@shift_reg_outputs,w
  1783     0131  0086               	movwf	6
  1784     0132  0187               	clrf	7
  1785     0133  0876               	movf	Renderer@left_common_line,w
  1786     0134  0081               	movwf	1
  1787     0135                     l1501:
  1788                           
  1789                           ;rendering.c: 276:    shift_reg_outputs->Common_Line_Two = right_common_line;
  1790     0135  0A72               	incf	Renderer@shift_reg_outputs,w
  1791     0136  0086               	movwf	6
  1792     0137  0187               	clrf	7
  1793     0138  0870               	movf	Renderer@right_common_line,w
  1794     0139  0081               	movwf	1
  1795     013A                     l84:
  1796     013A  0008               	return
  1797     013B                     __end_of_Renderer:
  1798                           
  1799                           	psect	text9
  1800     024C                     __ptext9:	
  1801 ;; *************** function _NumBuilder *****************
  1802 ;; Defined at:
  1803 ;;		line 65 in file "rendering.c"
  1804 ;; Parameters:    Size  Location     Type
  1805 ;;  character_li    1    wreg     const unsigned char 
  1806 ;;  Block           1    0[COMMON] PTR const struct BlockSe
  1807 ;;		 -> NumberBlocks(21), 
  1808 ;;  time            1    1[COMMON] const unsigned char 
  1809 ;; Auto vars:     Size  Location     Type
  1810 ;;  character_li    1    4[COMMON] const unsigned char 
  1811 ;; Return value:  Size  Location     Type
  1812 ;;                  1    wreg      unsigned char 
  1813 ;; Registers used:
  1814 ;;		wreg, fsr1l, fsr1h, status,2, status,0
  1815 ;; Tracked objects:
  1816 ;;		On entry : 0/0
  1817 ;;		On exit  : 0/0
  1818 ;;		Unchanged: 0/0
  1819 ;; Data sizes:     COMMON   BANK0   BANK1   BANK2
  1820 ;;      Params:         2       0       0       0
  1821 ;;      Locals:         1       0       0       0
  1822 ;;      Temps:          2       0       0       0
  1823 ;;      Totals:         5       0       0       0
  1824 ;;Total ram usage:        5 bytes
  1825 ;; Hardware stack levels used: 1
  1826 ;; This function calls:
  1827 ;;		Nothing
  1828 ;; This function is called by:
  1829 ;;		_main
  1830 ;; This function uses a non-reentrant model
  1831 ;;
  1832                           
  1833     024C                     _NumBuilder:	
  1834                           ;psect for function _NumBuilder
  1835                           
  1836                           
  1837                           ;incstack = 0
  1838                           ; Regs used in _NumBuilder: [wreg+fsr1l+fsr1h+status,2+status,0]
  1839                           ;NumBuilder@character_line stored from wreg
  1840     024C  00F4               	movwf	NumBuilder@character_line
  1841     024D                     l1251:
  1842                           
  1843                           ;rendering.c: 66:     static Uint8 Output = 0;;rendering.c: 68:     if( time == 0){
  1844     024D  0871               	movf	NumBuilder@time,w
  1845     024E  1D03               	btfss	3,2
  1846     024F  2A51               	goto	u1361
  1847     0250  2A52               	goto	u1360
  1848     0251                     u1361:
  1849     0251  2AD7               	goto	l1275
  1850     0252                     u1360:
  1851     0252                     l1253:
  1852                           
  1853                           ;rendering.c: 69:        Output = ((Block->ABlock << (character_line)) & 0b10000000);
  1854     0252  0870               	movf	NumBuilder@Block,w
  1855     0253  0086               	movwf	6
  1856     0254  0187               	clrf	7
  1857     0255  0801               	movf	1,w
  1858     0256  00F2               	movwf	??_NumBuilder
  1859     0257  0A74               	incf	NumBuilder@character_line,w
  1860     0258  2A5A               	goto	u1374
  1861     0259                     u1375:
  1862     0259  35F2               	lslf	??_NumBuilder,f
  1863     025A                     u1374:
  1864     025A  0B89               	decfsz	9,f
  1865     025B  2A59               	goto	u1375
  1866     025C  0872               	movf	??_NumBuilder,w
  1867     025D  3980               	andlw	128
  1868     025E  0020               	movlb	0	; select bank0
  1869     025F  00BB               	movwf	NumBuilder@Output
  1870     0260                     l1255:
  1871                           
  1872                           ;rendering.c: 70:        Output >>= 1;
  1873     0260  1003               	clrc
  1874     0261  0CBB               	rrf	NumBuilder@Output,f
  1875     0262                     l1257:
  1876                           
  1877                           ;rendering.c: 71:        Output |= ((Block->BBlock << (character_line)) & 0b10000000);
  1878     0262  0A70               	incf	NumBuilder@Block,w
  1879     0263  0086               	movwf	6
  1880     0264  0187               	clrf	7
  1881     0265  0801               	movf	1,w
  1882     0266  00F2               	movwf	??_NumBuilder
  1883     0267  0A74               	incf	NumBuilder@character_line,w
  1884     0268  2A6A               	goto	u1384
  1885     0269                     u1385:
  1886     0269  35F2               	lslf	??_NumBuilder,f
  1887     026A                     u1384:
  1888     026A  0B89               	decfsz	9,f
  1889     026B  2A69               	goto	u1385
  1890     026C  0872               	movf	??_NumBuilder,w
  1891     026D  3980               	andlw	128
  1892     026E  00F3               	movwf	??_NumBuilder+1
  1893     026F  0873               	movf	??_NumBuilder+1,w
  1894     0270  04BB               	iorwf	NumBuilder@Output,f
  1895                           
  1896                           ;rendering.c: 72:        Output >>= 1;
  1897     0271  1003               	clrc
  1898     0272  0CBB               	rrf	NumBuilder@Output,f
  1899     0273                     l1259:
  1900                           
  1901                           ;rendering.c: 73:        Output |= ((Block->BBlock << (character_line)) & 0b10000000);
  1902     0273  0A70               	incf	NumBuilder@Block,w
  1903     0274  0086               	movwf	6
  1904     0275  0187               	clrf	7
  1905     0276  0801               	movf	1,w
  1906     0277  00F2               	movwf	??_NumBuilder
  1907     0278  0A74               	incf	NumBuilder@character_line,w
  1908     0279  2A7B               	goto	u1394
  1909     027A                     u1395:
  1910     027A  35F2               	lslf	??_NumBuilder,f
  1911     027B                     u1394:
  1912     027B  0B89               	decfsz	9,f
  1913     027C  2A7A               	goto	u1395
  1914     027D  0872               	movf	??_NumBuilder,w
  1915     027E  3980               	andlw	128
  1916     027F  00F3               	movwf	??_NumBuilder+1
  1917     0280  0873               	movf	??_NumBuilder+1,w
  1918     0281  04BB               	iorwf	NumBuilder@Output,f
  1919     0282                     l1261:
  1920                           
  1921                           ;rendering.c: 74:        Output >>= 1;
  1922     0282  1003               	clrc
  1923     0283  0CBB               	rrf	NumBuilder@Output,f
  1924                           
  1925                           ;rendering.c: 75:        Output |= ((Block->BBlock << (character_line)) & 0b10000000);
  1926     0284  0A70               	incf	NumBuilder@Block,w
  1927     0285  0086               	movwf	6
  1928     0286  0187               	clrf	7
  1929     0287  0801               	movf	1,w
  1930     0288  00F2               	movwf	??_NumBuilder
  1931     0289  0A74               	incf	NumBuilder@character_line,w
  1932     028A  2A8C               	goto	u1404
  1933     028B                     u1405:
  1934     028B  35F2               	lslf	??_NumBuilder,f
  1935     028C                     u1404:
  1936     028C  0B89               	decfsz	9,f
  1937     028D  2A8B               	goto	u1405
  1938     028E  0872               	movf	??_NumBuilder,w
  1939     028F  3980               	andlw	128
  1940     0290  00F3               	movwf	??_NumBuilder+1
  1941     0291  0873               	movf	??_NumBuilder+1,w
  1942     0292  04BB               	iorwf	NumBuilder@Output,f
  1943     0293                     l1263:
  1944                           
  1945                           ;rendering.c: 76:        Output >>= 1;
  1946     0293  1003               	clrc
  1947     0294  0CBB               	rrf	NumBuilder@Output,f
  1948     0295                     l1265:
  1949                           
  1950                           ;rendering.c: 77:        Output |= ((Block->BBlock << (character_line)) & 0b10000000);
  1951     0295  0A70               	incf	NumBuilder@Block,w
  1952     0296  0086               	movwf	6
  1953     0297  0187               	clrf	7
  1954     0298  0801               	movf	1,w
  1955     0299  00F2               	movwf	??_NumBuilder
  1956     029A  0A74               	incf	NumBuilder@character_line,w
  1957     029B  2A9D               	goto	u1414
  1958     029C                     u1415:
  1959     029C  35F2               	lslf	??_NumBuilder,f
  1960     029D                     u1414:
  1961     029D  0B89               	decfsz	9,f
  1962     029E  2A9C               	goto	u1415
  1963     029F  0872               	movf	??_NumBuilder,w
  1964     02A0  3980               	andlw	128
  1965     02A1  00F3               	movwf	??_NumBuilder+1
  1966     02A2  0873               	movf	??_NumBuilder+1,w
  1967     02A3  04BB               	iorwf	NumBuilder@Output,f
  1968                           
  1969                           ;rendering.c: 78:        Output >>= 1;
  1970     02A4  1003               	clrc
  1971     02A5  0CBB               	rrf	NumBuilder@Output,f
  1972     02A6                     l1267:
  1973                           
  1974                           ;rendering.c: 79:        Output |= ((Block->BBlock << (character_line)) & 0b10000000);
  1975     02A6  0A70               	incf	NumBuilder@Block,w
  1976     02A7  0086               	movwf	6
  1977     02A8  0187               	clrf	7
  1978     02A9  0801               	movf	1,w
  1979     02AA  00F2               	movwf	??_NumBuilder
  1980     02AB  0A74               	incf	NumBuilder@character_line,w
  1981     02AC  2AAE               	goto	u1424
  1982     02AD                     u1425:
  1983     02AD  35F2               	lslf	??_NumBuilder,f
  1984     02AE                     u1424:
  1985     02AE  0B89               	decfsz	9,f
  1986     02AF  2AAD               	goto	u1425
  1987     02B0  0872               	movf	??_NumBuilder,w
  1988     02B1  3980               	andlw	128
  1989     02B2  00F3               	movwf	??_NumBuilder+1
  1990     02B3  0873               	movf	??_NumBuilder+1,w
  1991     02B4  04BB               	iorwf	NumBuilder@Output,f
  1992     02B5                     l1269:
  1993                           
  1994                           ;rendering.c: 80:        Output >>= 1;
  1995     02B5  1003               	clrc
  1996     02B6  0CBB               	rrf	NumBuilder@Output,f
  1997                           
  1998                           ;rendering.c: 81:        Output |= ((Block->BBlock << (character_line)) & 0b10000000);
  1999     02B7  0A70               	incf	NumBuilder@Block,w
  2000     02B8  0086               	movwf	6
  2001     02B9  0187               	clrf	7
  2002     02BA  0801               	movf	1,w
  2003     02BB  00F2               	movwf	??_NumBuilder
  2004     02BC  0A74               	incf	NumBuilder@character_line,w
  2005     02BD  2ABF               	goto	u1434
  2006     02BE                     u1435:
  2007     02BE  35F2               	lslf	??_NumBuilder,f
  2008     02BF                     u1434:
  2009     02BF  0B89               	decfsz	9,f
  2010     02C0  2ABE               	goto	u1435
  2011     02C1  0872               	movf	??_NumBuilder,w
  2012     02C2  3980               	andlw	128
  2013     02C3  00F3               	movwf	??_NumBuilder+1
  2014     02C4  0873               	movf	??_NumBuilder+1,w
  2015     02C5  04BB               	iorwf	NumBuilder@Output,f
  2016     02C6                     l1271:
  2017                           
  2018                           ;rendering.c: 82:        Output >>= 1;
  2019     02C6  1003               	clrc
  2020     02C7  0CBB               	rrf	NumBuilder@Output,f
  2021     02C8                     l1273:
  2022                           
  2023                           ;rendering.c: 83:        Output |= ((Block->ABlock << (character_line)) & 0b10000000);
  2024     02C8  0870               	movf	NumBuilder@Block,w
  2025     02C9  0086               	movwf	6
  2026     02CA  0187               	clrf	7
  2027     02CB  0801               	movf	1,w
  2028     02CC  00F2               	movwf	??_NumBuilder
  2029     02CD  0A74               	incf	NumBuilder@character_line,w
  2030     02CE  2AD0               	goto	u1444
  2031     02CF                     u1445:
  2032     02CF  35F2               	lslf	??_NumBuilder,f
  2033     02D0                     u1444:
  2034     02D0  0B89               	decfsz	9,f
  2035     02D1  2ACF               	goto	u1445
  2036     02D2  0872               	movf	??_NumBuilder,w
  2037     02D3  3980               	andlw	128
  2038     02D4  00F3               	movwf	??_NumBuilder+1
  2039     02D5  0873               	movf	??_NumBuilder+1,w
  2040     02D6  04BB               	iorwf	NumBuilder@Output,f
  2041     02D7                     l1275:
  2042                           
  2043                           ;rendering.c: 86:     if( time == 1){
  2044     02D7  0371               	decf	NumBuilder@time,w
  2045     02D8  1D03               	btfss	3,2
  2046     02D9  2ADB               	goto	u1451
  2047     02DA  2ADC               	goto	u1450
  2048     02DB                     u1451:
  2049     02DB  2B69               	goto	l1299
  2050     02DC                     u1450:
  2051     02DC                     l1277:
  2052                           
  2053                           ;rendering.c: 88:        Output = ((Block->FBlock << (character_line)) & 0b10000000);
  2054     02DC  0870               	movf	NumBuilder@Block,w
  2055     02DD  3E05               	addlw	5
  2056     02DE  0086               	movwf	6
  2057     02DF  0187               	clrf	7
  2058     02E0  0801               	movf	1,w
  2059     02E1  00F2               	movwf	??_NumBuilder
  2060     02E2  0A74               	incf	NumBuilder@character_line,w
  2061     02E3  2AE5               	goto	u1464
  2062     02E4                     u1465:
  2063     02E4  35F2               	lslf	??_NumBuilder,f
  2064     02E5                     u1464:
  2065     02E5  0B89               	decfsz	9,f
  2066     02E6  2AE4               	goto	u1465
  2067     02E7  0872               	movf	??_NumBuilder,w
  2068     02E8  3980               	andlw	128
  2069     02E9  0020               	movlb	0	; select bank0
  2070     02EA  00BB               	movwf	NumBuilder@Output
  2071     02EB                     l1279:
  2072                           
  2073                           ;rendering.c: 89:        Output >>= 1;
  2074     02EB  1003               	clrc
  2075     02EC  0CBB               	rrf	NumBuilder@Output,f
  2076     02ED                     l1281:
  2077                           
  2078                           ;rendering.c: 90:        Output |= ((Block->CBlock << (character_line)) & 0b10000000);
  2079     02ED  0870               	movf	NumBuilder@Block,w
  2080     02EE  3E02               	addlw	2
  2081     02EF  0086               	movwf	6
  2082     02F0  0187               	clrf	7
  2083     02F1  0801               	movf	1,w
  2084     02F2  00F2               	movwf	??_NumBuilder
  2085     02F3  0A74               	incf	NumBuilder@character_line,w
  2086     02F4  2AF6               	goto	u1474
  2087     02F5                     u1475:
  2088     02F5  35F2               	lslf	??_NumBuilder,f
  2089     02F6                     u1474:
  2090     02F6  0B89               	decfsz	9,f
  2091     02F7  2AF5               	goto	u1475
  2092     02F8  0872               	movf	??_NumBuilder,w
  2093     02F9  3980               	andlw	128
  2094     02FA  00F3               	movwf	??_NumBuilder+1
  2095     02FB  0873               	movf	??_NumBuilder+1,w
  2096     02FC  04BB               	iorwf	NumBuilder@Output,f
  2097                           
  2098                           ;rendering.c: 91:        Output >>= 1;
  2099     02FD  1003               	clrc
  2100     02FE  0CBB               	rrf	NumBuilder@Output,f
  2101     02FF                     l1283:
  2102                           
  2103                           ;rendering.c: 92:        Output |= ((Block->CBlock << (character_line)) & 0b10000000);
  2104     02FF  0870               	movf	NumBuilder@Block,w
  2105     0300  3E02               	addlw	2
  2106     0301  0086               	movwf	6
  2107     0302  0187               	clrf	7
  2108     0303  0801               	movf	1,w
  2109     0304  00F2               	movwf	??_NumBuilder
  2110     0305  0A74               	incf	NumBuilder@character_line,w
  2111     0306  2B08               	goto	u1484
  2112     0307                     u1485:
  2113     0307  35F2               	lslf	??_NumBuilder,f
  2114     0308                     u1484:
  2115     0308  0B89               	decfsz	9,f
  2116     0309  2B07               	goto	u1485
  2117     030A  0872               	movf	??_NumBuilder,w
  2118     030B  3980               	andlw	128
  2119     030C  00F3               	movwf	??_NumBuilder+1
  2120     030D  0873               	movf	??_NumBuilder+1,w
  2121     030E  04BB               	iorwf	NumBuilder@Output,f
  2122     030F                     l1285:
  2123                           
  2124                           ;rendering.c: 93:        Output >>= 1;
  2125     030F  1003               	clrc
  2126     0310  0CBB               	rrf	NumBuilder@Output,f
  2127                           
  2128                           ;rendering.c: 94:        Output |= ((Block->CBlock << (character_line)) & 0b10000000);
  2129     0311  0870               	movf	NumBuilder@Block,w
  2130     0312  3E02               	addlw	2
  2131     0313  0086               	movwf	6
  2132     0314  0187               	clrf	7
  2133     0315  0801               	movf	1,w
  2134     0316  00F2               	movwf	??_NumBuilder
  2135     0317  0A74               	incf	NumBuilder@character_line,w
  2136     0318  2B1A               	goto	u1494
  2137     0319                     u1495:
  2138     0319  35F2               	lslf	??_NumBuilder,f
  2139     031A                     u1494:
  2140     031A  0B89               	decfsz	9,f
  2141     031B  2B19               	goto	u1495
  2142     031C  0872               	movf	??_NumBuilder,w
  2143     031D  3980               	andlw	128
  2144     031E  00F3               	movwf	??_NumBuilder+1
  2145     031F  0873               	movf	??_NumBuilder+1,w
  2146     0320  04BB               	iorwf	NumBuilder@Output,f
  2147     0321                     l1287:
  2148                           
  2149                           ;rendering.c: 95:        Output >>= 1;
  2150     0321  1003               	clrc
  2151     0322  0CBB               	rrf	NumBuilder@Output,f
  2152     0323                     l1289:
  2153                           
  2154                           ;rendering.c: 96:        Output |= ((Block->CBlock << (character_line)) & 0b10000000);
  2155     0323  0870               	movf	NumBuilder@Block,w
  2156     0324  3E02               	addlw	2
  2157     0325  0086               	movwf	6
  2158     0326  0187               	clrf	7
  2159     0327  0801               	movf	1,w
  2160     0328  00F2               	movwf	??_NumBuilder
  2161     0329  0A74               	incf	NumBuilder@character_line,w
  2162     032A  2B2C               	goto	u1504
  2163     032B                     u1505:
  2164     032B  35F2               	lslf	??_NumBuilder,f
  2165     032C                     u1504:
  2166     032C  0B89               	decfsz	9,f
  2167     032D  2B2B               	goto	u1505
  2168     032E  0872               	movf	??_NumBuilder,w
  2169     032F  3980               	andlw	128
  2170     0330  00F3               	movwf	??_NumBuilder+1
  2171     0331  0873               	movf	??_NumBuilder+1,w
  2172     0332  04BB               	iorwf	NumBuilder@Output,f
  2173                           
  2174                           ;rendering.c: 97:        Output >>= 1;
  2175     0333  1003               	clrc
  2176     0334  0CBB               	rrf	NumBuilder@Output,f
  2177     0335                     l1291:
  2178                           
  2179                           ;rendering.c: 98:        Output |= ((Block->EBlock << (character_line)) & 0b10000000);
  2180     0335  0870               	movf	NumBuilder@Block,w
  2181     0336  3E04               	addlw	4
  2182     0337  0086               	movwf	6
  2183     0338  0187               	clrf	7
  2184     0339  0801               	movf	1,w
  2185     033A  00F2               	movwf	??_NumBuilder
  2186     033B  0A74               	incf	NumBuilder@character_line,w
  2187     033C  2B3E               	goto	u1514
  2188     033D                     u1515:
  2189     033D  35F2               	lslf	??_NumBuilder,f
  2190     033E                     u1514:
  2191     033E  0B89               	decfsz	9,f
  2192     033F  2B3D               	goto	u1515
  2193     0340  0872               	movf	??_NumBuilder,w
  2194     0341  3980               	andlw	128
  2195     0342  00F3               	movwf	??_NumBuilder+1
  2196     0343  0873               	movf	??_NumBuilder+1,w
  2197     0344  04BB               	iorwf	NumBuilder@Output,f
  2198     0345                     l1293:
  2199                           
  2200                           ;rendering.c: 99:        Output >>= 1;
  2201     0345  1003               	clrc
  2202     0346  0CBB               	rrf	NumBuilder@Output,f
  2203                           
  2204                           ;rendering.c: 100:        Output |= ((Block->DBlock << (character_line)) & 0b10000000);
  2205     0347  0870               	movf	NumBuilder@Block,w
  2206     0348  3E03               	addlw	3
  2207     0349  0086               	movwf	6
  2208     034A  0187               	clrf	7
  2209     034B  0801               	movf	1,w
  2210     034C  00F2               	movwf	??_NumBuilder
  2211     034D  0A74               	incf	NumBuilder@character_line,w
  2212     034E  2B50               	goto	u1524
  2213     034F                     u1525:
  2214     034F  35F2               	lslf	??_NumBuilder,f
  2215     0350                     u1524:
  2216     0350  0B89               	decfsz	9,f
  2217     0351  2B4F               	goto	u1525
  2218     0352  0872               	movf	??_NumBuilder,w
  2219     0353  3980               	andlw	128
  2220     0354  00F3               	movwf	??_NumBuilder+1
  2221     0355  0873               	movf	??_NumBuilder+1,w
  2222     0356  04BB               	iorwf	NumBuilder@Output,f
  2223     0357                     l1295:
  2224                           
  2225                           ;rendering.c: 101:        Output >>= 1;
  2226     0357  1003               	clrc
  2227     0358  0CBB               	rrf	NumBuilder@Output,f
  2228     0359                     l1297:
  2229                           
  2230                           ;rendering.c: 102:        Output |= ((Block->CBlock << (character_line)) & 0b10000000);
  2231     0359  0870               	movf	NumBuilder@Block,w
  2232     035A  3E02               	addlw	2
  2233     035B  0086               	movwf	6
  2234     035C  0187               	clrf	7
  2235     035D  0801               	movf	1,w
  2236     035E  00F2               	movwf	??_NumBuilder
  2237     035F  0A74               	incf	NumBuilder@character_line,w
  2238     0360  2B62               	goto	u1534
  2239     0361                     u1535:
  2240     0361  35F2               	lslf	??_NumBuilder,f
  2241     0362                     u1534:
  2242     0362  0B89               	decfsz	9,f
  2243     0363  2B61               	goto	u1535
  2244     0364  0872               	movf	??_NumBuilder,w
  2245     0365  3980               	andlw	128
  2246     0366  00F3               	movwf	??_NumBuilder+1
  2247     0367  0873               	movf	??_NumBuilder+1,w
  2248     0368  04BB               	iorwf	NumBuilder@Output,f
  2249     0369                     l1299:
  2250                           
  2251                           ;rendering.c: 105:     if( time == 2){
  2252     0369  3002               	movlw	2
  2253     036A  0671               	xorwf	NumBuilder@time,w
  2254     036B  1D03               	btfss	3,2
  2255     036C  2B6E               	goto	u1541
  2256     036D  2B6F               	goto	u1540
  2257     036E                     u1541:
  2258     036E  2BF9               	goto	l1323
  2259     036F                     u1540:
  2260     036F                     l1301:
  2261                           
  2262                           ;rendering.c: 107:        Output = ((Block->FBlock << (character_line)) & 0b10000000);
  2263     036F  0870               	movf	NumBuilder@Block,w
  2264     0370  3E05               	addlw	5
  2265     0371  0086               	movwf	6
  2266     0372  0187               	clrf	7
  2267     0373  0801               	movf	1,w
  2268     0374  00F2               	movwf	??_NumBuilder
  2269     0375  0A74               	incf	NumBuilder@character_line,w
  2270     0376  2B78               	goto	u1554
  2271     0377                     u1555:
  2272     0377  35F2               	lslf	??_NumBuilder,f
  2273     0378                     u1554:
  2274     0378  0B89               	decfsz	9,f
  2275     0379  2B77               	goto	u1555
  2276     037A  0872               	movf	??_NumBuilder,w
  2277     037B  3980               	andlw	128
  2278     037C  0020               	movlb	0	; select bank0
  2279     037D  00BB               	movwf	NumBuilder@Output
  2280     037E                     l1303:
  2281                           
  2282                           ;rendering.c: 108:        Output >>= 1;
  2283     037E  1003               	clrc
  2284     037F  0CBB               	rrf	NumBuilder@Output,f
  2285     0380                     l1305:
  2286                           
  2287                           ;rendering.c: 109:        Output |= ((Block->HBlock << (character_line)) & 0b10000000);
  2288     0380  0870               	movf	NumBuilder@Block,w
  2289     0381  3E07               	addlw	7
  2290     0382  0086               	movwf	6
  2291     0383  0187               	clrf	7
  2292     0384  0801               	movf	1,w
  2293     0385  00F2               	movwf	??_NumBuilder
  2294     0386  0A74               	incf	NumBuilder@character_line,w
  2295     0387  2B89               	goto	u1564
  2296     0388                     u1565:
  2297     0388  35F2               	lslf	??_NumBuilder,f
  2298     0389                     u1564:
  2299     0389  0B89               	decfsz	9,f
  2300     038A  2B88               	goto	u1565
  2301     038B  0872               	movf	??_NumBuilder,w
  2302     038C  3980               	andlw	128
  2303     038D  00F3               	movwf	??_NumBuilder+1
  2304     038E  0873               	movf	??_NumBuilder+1,w
  2305     038F  04BB               	iorwf	NumBuilder@Output,f
  2306                           
  2307                           ;rendering.c: 110:        Output >>= 1;
  2308     0390  1003               	clrc
  2309     0391  0CBB               	rrf	NumBuilder@Output,f
  2310     0392                     l1307:
  2311                           
  2312                           ;rendering.c: 111:        Output |= ((Block->SBlock << (character_line)) & 0b10000000);
  2313     0392  0870               	movf	NumBuilder@Block,w
  2314     0393  3E12               	addlw	18
  2315     0394  0086               	movwf	6
  2316     0395  0187               	clrf	7
  2317     0396  0801               	movf	1,w
  2318     0397  00F2               	movwf	??_NumBuilder
  2319     0398  0A74               	incf	NumBuilder@character_line,w
  2320     0399  2B9B               	goto	u1574
  2321     039A                     u1575:
  2322     039A  35F2               	lslf	??_NumBuilder,f
  2323     039B                     u1574:
  2324     039B  0B89               	decfsz	9,f
  2325     039C  2B9A               	goto	u1575
  2326     039D  0872               	movf	??_NumBuilder,w
  2327     039E  3980               	andlw	128
  2328     039F  00F3               	movwf	??_NumBuilder+1
  2329     03A0  0873               	movf	??_NumBuilder+1,w
  2330     03A1  04BB               	iorwf	NumBuilder@Output,f
  2331     03A2                     l1309:
  2332                           
  2333                           ;rendering.c: 112:        Output >>= 1;
  2334     03A2  1003               	clrc
  2335     03A3  0CBB               	rrf	NumBuilder@Output,f
  2336                           
  2337                           ;rendering.c: 113:        Output |= ((Block->DBlock << (character_line)) & 0b10000000);
  2338     03A4  0870               	movf	NumBuilder@Block,w
  2339     03A5  3E03               	addlw	3
  2340     03A6  0086               	movwf	6
  2341     03A7  0187               	clrf	7
  2342     03A8  0801               	movf	1,w
  2343     03A9  00F2               	movwf	??_NumBuilder
  2344     03AA  0A74               	incf	NumBuilder@character_line,w
  2345     03AB  2BAD               	goto	u1584
  2346     03AC                     u1585:
  2347     03AC  35F2               	lslf	??_NumBuilder,f
  2348     03AD                     u1584:
  2349     03AD  0B89               	decfsz	9,f
  2350     03AE  2BAC               	goto	u1585
  2351     03AF  0872               	movf	??_NumBuilder,w
  2352     03B0  3980               	andlw	128
  2353     03B1  00F3               	movwf	??_NumBuilder+1
  2354     03B2  0873               	movf	??_NumBuilder+1,w
  2355     03B3  04BB               	iorwf	NumBuilder@Output,f
  2356     03B4                     l1311:
  2357                           
  2358                           ;rendering.c: 114:        Output >>= 1;
  2359     03B4  1003               	clrc
  2360     03B5  0CBB               	rrf	NumBuilder@Output,f
  2361     03B6                     l1313:
  2362                           
  2363                           ;rendering.c: 115:        Output |= ((Block->GBlock << (character_line)) & 0b10000000);
  2364     03B6  0870               	movf	NumBuilder@Block,w
  2365     03B7  3E06               	addlw	6
  2366     03B8  0086               	movwf	6
  2367     03B9  0187               	clrf	7
  2368     03BA  0801               	movf	1,w
  2369     03BB  00F2               	movwf	??_NumBuilder
  2370     03BC  0A74               	incf	NumBuilder@character_line,w
  2371     03BD  2BBF               	goto	u1594
  2372     03BE                     u1595:
  2373     03BE  35F2               	lslf	??_NumBuilder,f
  2374     03BF                     u1594:
  2375     03BF  0B89               	decfsz	9,f
  2376     03C0  2BBE               	goto	u1595
  2377     03C1  0872               	movf	??_NumBuilder,w
  2378     03C2  3980               	andlw	128
  2379     03C3  00F3               	movwf	??_NumBuilder+1
  2380     03C4  0873               	movf	??_NumBuilder+1,w
  2381     03C5  04BB               	iorwf	NumBuilder@Output,f
  2382                           
  2383                           ;rendering.c: 116:        Output >>= 1;
  2384     03C6  1003               	clrc
  2385     03C7  0CBB               	rrf	NumBuilder@Output,f
  2386     03C8                     l1315:
  2387                           
  2388                           ;rendering.c: 117:        Output |= ((Block->BBlock << (character_line)) & 0b10000000);
  2389     03C8  0A70               	incf	NumBuilder@Block,w
  2390     03C9  0086               	movwf	6
  2391     03CA  0187               	clrf	7
  2392     03CB  0801               	movf	1,w
  2393     03CC  00F2               	movwf	??_NumBuilder
  2394     03CD  0A74               	incf	NumBuilder@character_line,w
  2395     03CE  2BD0               	goto	u1604
  2396     03CF                     u1605:
  2397     03CF  35F2               	lslf	??_NumBuilder,f
  2398     03D0                     u1604:
  2399     03D0  0B89               	decfsz	9,f
  2400     03D1  2BCF               	goto	u1605
  2401     03D2  0872               	movf	??_NumBuilder,w
  2402     03D3  3980               	andlw	128
  2403     03D4  00F3               	movwf	??_NumBuilder+1
  2404     03D5  0873               	movf	??_NumBuilder+1,w
  2405     03D6  04BB               	iorwf	NumBuilder@Output,f
  2406     03D7                     l1317:
  2407                           
  2408                           ;rendering.c: 118:        Output >>= 1;
  2409     03D7  1003               	clrc
  2410     03D8  0CBB               	rrf	NumBuilder@Output,f
  2411                           
  2412                           ;rendering.c: 119:        Output |= ((Block->BBlock << (character_line)) & 0b10000000);
  2413     03D9  0A70               	incf	NumBuilder@Block,w
  2414     03DA  0086               	movwf	6
  2415     03DB  0187               	clrf	7
  2416     03DC  0801               	movf	1,w
  2417     03DD  00F2               	movwf	??_NumBuilder
  2418     03DE  0A74               	incf	NumBuilder@character_line,w
  2419     03DF  2BE1               	goto	u1614
  2420     03E0                     u1615:
  2421     03E0  35F2               	lslf	??_NumBuilder,f
  2422     03E1                     u1614:
  2423     03E1  0B89               	decfsz	9,f
  2424     03E2  2BE0               	goto	u1615
  2425     03E3  0872               	movf	??_NumBuilder,w
  2426     03E4  3980               	andlw	128
  2427     03E5  00F3               	movwf	??_NumBuilder+1
  2428     03E6  0873               	movf	??_NumBuilder+1,w
  2429     03E7  04BB               	iorwf	NumBuilder@Output,f
  2430     03E8                     l1319:
  2431                           
  2432                           ;rendering.c: 120:        Output >>= 1;
  2433     03E8  1003               	clrc
  2434     03E9  0CBB               	rrf	NumBuilder@Output,f
  2435     03EA                     l1321:
  2436                           
  2437                           ;rendering.c: 121:        Output |= ((Block->ABlock << (character_line)) & 0b10000000);
  2438     03EA  0870               	movf	NumBuilder@Block,w
  2439     03EB  0086               	movwf	6
  2440     03EC  0187               	clrf	7
  2441     03ED  0801               	movf	1,w
  2442     03EE  00F2               	movwf	??_NumBuilder
  2443     03EF  0A74               	incf	NumBuilder@character_line,w
  2444     03F0  2BF2               	goto	u1624
  2445     03F1                     u1625:
  2446     03F1  35F2               	lslf	??_NumBuilder,f
  2447     03F2                     u1624:
  2448     03F2  0B89               	decfsz	9,f
  2449     03F3  2BF1               	goto	u1625
  2450     03F4  0872               	movf	??_NumBuilder,w
  2451     03F5  3980               	andlw	128
  2452     03F6  00F3               	movwf	??_NumBuilder+1
  2453     03F7  0873               	movf	??_NumBuilder+1,w
  2454     03F8  04BB               	iorwf	NumBuilder@Output,f
  2455     03F9                     l1323:
  2456                           
  2457                           ;rendering.c: 124:     if( time == 3){
  2458     03F9  3003               	movlw	3
  2459     03FA  0671               	xorwf	NumBuilder@time,w
  2460     03FB  1D03               	btfss	3,2
  2461     03FC  2BFE               	goto	u1631
  2462     03FD  2BFF               	goto	u1630
  2463     03FE                     u1631:
  2464     03FE  2C89               	goto	l1347
  2465     03FF                     u1630:
  2466     03FF                     l1325:
  2467                           
  2468                           ;rendering.c: 126:        Output = ((Block->ABlock << (character_line)) & 0b10000000);
  2469     03FF  0870               	movf	NumBuilder@Block,w
  2470     0400  0086               	movwf	6
  2471     0401  0187               	clrf	7
  2472     0402  0801               	movf	1,w
  2473     0403  00F2               	movwf	??_NumBuilder
  2474     0404  0A74               	incf	NumBuilder@character_line,w
  2475     0405  2C07               	goto	u1644
  2476     0406                     u1645:
  2477     0406  35F2               	lslf	??_NumBuilder,f
  2478     0407                     u1644:
  2479     0407  0B89               	decfsz	9,f
  2480     0408  2C06               	goto	u1645
  2481     0409  0872               	movf	??_NumBuilder,w
  2482     040A  3980               	andlw	128
  2483     040B  0020               	movlb	0	; select bank0
  2484     040C  00BB               	movwf	NumBuilder@Output
  2485     040D                     l1327:
  2486                           
  2487                           ;rendering.c: 127:        Output >>= 1;
  2488     040D  1003               	clrc
  2489     040E  0CBB               	rrf	NumBuilder@Output,f
  2490     040F                     l1329:
  2491                           
  2492                           ;rendering.c: 128:        Output |= ((Block->BBlock << (character_line)) & 0b10000000);
  2493     040F  0A70               	incf	NumBuilder@Block,w
  2494     0410  0086               	movwf	6
  2495     0411  0187               	clrf	7
  2496     0412  0801               	movf	1,w
  2497     0413  00F2               	movwf	??_NumBuilder
  2498     0414  0A74               	incf	NumBuilder@character_line,w
  2499     0415  2C17               	goto	u1654
  2500     0416                     u1655:
  2501     0416  35F2               	lslf	??_NumBuilder,f
  2502     0417                     u1654:
  2503     0417  0B89               	decfsz	9,f
  2504     0418  2C16               	goto	u1655
  2505     0419  0872               	movf	??_NumBuilder,w
  2506     041A  3980               	andlw	128
  2507     041B  00F3               	movwf	??_NumBuilder+1
  2508     041C  0873               	movf	??_NumBuilder+1,w
  2509     041D  04BB               	iorwf	NumBuilder@Output,f
  2510                           
  2511                           ;rendering.c: 129:        Output >>= 1;
  2512     041E  1003               	clrc
  2513     041F  0CBB               	rrf	NumBuilder@Output,f
  2514     0420                     l1331:
  2515                           
  2516                           ;rendering.c: 130:        Output |= ((Block->BBlock << (character_line)) & 0b10000000);
  2517     0420  0A70               	incf	NumBuilder@Block,w
  2518     0421  0086               	movwf	6
  2519     0422  0187               	clrf	7
  2520     0423  0801               	movf	1,w
  2521     0424  00F2               	movwf	??_NumBuilder
  2522     0425  0A74               	incf	NumBuilder@character_line,w
  2523     0426  2C28               	goto	u1664
  2524     0427                     u1665:
  2525     0427  35F2               	lslf	??_NumBuilder,f
  2526     0428                     u1664:
  2527     0428  0B89               	decfsz	9,f
  2528     0429  2C27               	goto	u1665
  2529     042A  0872               	movf	??_NumBuilder,w
  2530     042B  3980               	andlw	128
  2531     042C  00F3               	movwf	??_NumBuilder+1
  2532     042D  0873               	movf	??_NumBuilder+1,w
  2533     042E  04BB               	iorwf	NumBuilder@Output,f
  2534     042F                     l1333:
  2535                           
  2536                           ;rendering.c: 131:        Output >>= 1;
  2537     042F  1003               	clrc
  2538     0430  0CBB               	rrf	NumBuilder@Output,f
  2539                           
  2540                           ;rendering.c: 132:        Output |= ((Block->JBlock << (character_line)) & 0b10000000);
  2541     0431  0870               	movf	NumBuilder@Block,w
  2542     0432  3E09               	addlw	9
  2543     0433  0086               	movwf	6
  2544     0434  0187               	clrf	7
  2545     0435  0801               	movf	1,w
  2546     0436  00F2               	movwf	??_NumBuilder
  2547     0437  0A74               	incf	NumBuilder@character_line,w
  2548     0438  2C3A               	goto	u1674
  2549     0439                     u1675:
  2550     0439  35F2               	lslf	??_NumBuilder,f
  2551     043A                     u1674:
  2552     043A  0B89               	decfsz	9,f
  2553     043B  2C39               	goto	u1675
  2554     043C  0872               	movf	??_NumBuilder,w
  2555     043D  3980               	andlw	128
  2556     043E  00F3               	movwf	??_NumBuilder+1
  2557     043F  0873               	movf	??_NumBuilder+1,w
  2558     0440  04BB               	iorwf	NumBuilder@Output,f
  2559     0441                     l1335:
  2560                           
  2561                           ;rendering.c: 133:        Output >>= 1;
  2562     0441  1003               	clrc
  2563     0442  0CBB               	rrf	NumBuilder@Output,f
  2564     0443                     l1337:
  2565                           
  2566                           ;rendering.c: 134:        Output |= ((Block->IBlock << (character_line)) & 0b10000000);
  2567     0443  0870               	movf	NumBuilder@Block,w
  2568     0444  3E08               	addlw	8
  2569     0445  0086               	movwf	6
  2570     0446  0187               	clrf	7
  2571     0447  0801               	movf	1,w
  2572     0448  00F2               	movwf	??_NumBuilder
  2573     0449  0A74               	incf	NumBuilder@character_line,w
  2574     044A  2C4C               	goto	u1684
  2575     044B                     u1685:
  2576     044B  35F2               	lslf	??_NumBuilder,f
  2577     044C                     u1684:
  2578     044C  0B89               	decfsz	9,f
  2579     044D  2C4B               	goto	u1685
  2580     044E  0872               	movf	??_NumBuilder,w
  2581     044F  3980               	andlw	128
  2582     0450  00F3               	movwf	??_NumBuilder+1
  2583     0451  0873               	movf	??_NumBuilder+1,w
  2584     0452  04BB               	iorwf	NumBuilder@Output,f
  2585                           
  2586                           ;rendering.c: 135:        Output >>= 1;
  2587     0453  1003               	clrc
  2588     0454  0CBB               	rrf	NumBuilder@Output,f
  2589     0455                     l1339:
  2590                           
  2591                           ;rendering.c: 136:        Output |= ((Block->EBlock << (character_line)) & 0b10000000);
  2592     0455  0870               	movf	NumBuilder@Block,w
  2593     0456  3E04               	addlw	4
  2594     0457  0086               	movwf	6
  2595     0458  0187               	clrf	7
  2596     0459  0801               	movf	1,w
  2597     045A  00F2               	movwf	??_NumBuilder
  2598     045B  0A74               	incf	NumBuilder@character_line,w
  2599     045C  2C5E               	goto	u1694
  2600     045D                     u1695:
  2601     045D  35F2               	lslf	??_NumBuilder,f
  2602     045E                     u1694:
  2603     045E  0B89               	decfsz	9,f
  2604     045F  2C5D               	goto	u1695
  2605     0460  0872               	movf	??_NumBuilder,w
  2606     0461  3980               	andlw	128
  2607     0462  00F3               	movwf	??_NumBuilder+1
  2608     0463  0873               	movf	??_NumBuilder+1,w
  2609     0464  04BB               	iorwf	NumBuilder@Output,f
  2610     0465                     l1341:
  2611                           
  2612                           ;rendering.c: 137:        Output >>= 1;
  2613     0465  1003               	clrc
  2614     0466  0CBB               	rrf	NumBuilder@Output,f
  2615                           
  2616                           ;rendering.c: 138:        Output |= ((Block->GBlock << (character_line)) & 0b10000000);
  2617     0467  0870               	movf	NumBuilder@Block,w
  2618     0468  3E06               	addlw	6
  2619     0469  0086               	movwf	6
  2620     046A  0187               	clrf	7
  2621     046B  0801               	movf	1,w
  2622     046C  00F2               	movwf	??_NumBuilder
  2623     046D  0A74               	incf	NumBuilder@character_line,w
  2624     046E  2C70               	goto	u1704
  2625     046F                     u1705:
  2626     046F  35F2               	lslf	??_NumBuilder,f
  2627     0470                     u1704:
  2628     0470  0B89               	decfsz	9,f
  2629     0471  2C6F               	goto	u1705
  2630     0472  0872               	movf	??_NumBuilder,w
  2631     0473  3980               	andlw	128
  2632     0474  00F3               	movwf	??_NumBuilder+1
  2633     0475  0873               	movf	??_NumBuilder+1,w
  2634     0476  04BB               	iorwf	NumBuilder@Output,f
  2635     0477                     l1343:
  2636                           
  2637                           ;rendering.c: 139:        Output >>= 1;
  2638     0477  1003               	clrc
  2639     0478  0CBB               	rrf	NumBuilder@Output,f
  2640     0479                     l1345:
  2641                           
  2642                           ;rendering.c: 140:        Output |= ((Block->FBlock << (character_line)) & 0b10000000);
  2643     0479  0870               	movf	NumBuilder@Block,w
  2644     047A  3E05               	addlw	5
  2645     047B  0086               	movwf	6
  2646     047C  0187               	clrf	7
  2647     047D  0801               	movf	1,w
  2648     047E  00F2               	movwf	??_NumBuilder
  2649     047F  0A74               	incf	NumBuilder@character_line,w
  2650     0480  2C82               	goto	u1714
  2651     0481                     u1715:
  2652     0481  35F2               	lslf	??_NumBuilder,f
  2653     0482                     u1714:
  2654     0482  0B89               	decfsz	9,f
  2655     0483  2C81               	goto	u1715
  2656     0484  0872               	movf	??_NumBuilder,w
  2657     0485  3980               	andlw	128
  2658     0486  00F3               	movwf	??_NumBuilder+1
  2659     0487  0873               	movf	??_NumBuilder+1,w
  2660     0488  04BB               	iorwf	NumBuilder@Output,f
  2661     0489                     l1347:
  2662                           
  2663                           ;rendering.c: 143:     if( time == 4){
  2664     0489  3004               	movlw	4
  2665     048A  0671               	xorwf	NumBuilder@time,w
  2666     048B  1D03               	btfss	3,2
  2667     048C  2C8E               	goto	u1721
  2668     048D  2C8F               	goto	u1720
  2669     048E                     u1721:
  2670     048E  2D1C               	goto	l1371
  2671     048F                     u1720:
  2672     048F                     l1349:
  2673                           
  2674                           ;rendering.c: 145:        Output = ((Block->GBlock << (character_line)) & 0b10000000);
  2675     048F  0870               	movf	NumBuilder@Block,w
  2676     0490  3E06               	addlw	6
  2677     0491  0086               	movwf	6
  2678     0492  0187               	clrf	7
  2679     0493  0801               	movf	1,w
  2680     0494  00F2               	movwf	??_NumBuilder
  2681     0495  0A74               	incf	NumBuilder@character_line,w
  2682     0496  2C98               	goto	u1734
  2683     0497                     u1735:
  2684     0497  35F2               	lslf	??_NumBuilder,f
  2685     0498                     u1734:
  2686     0498  0B89               	decfsz	9,f
  2687     0499  2C97               	goto	u1735
  2688     049A  0872               	movf	??_NumBuilder,w
  2689     049B  3980               	andlw	128
  2690     049C  0020               	movlb	0	; select bank0
  2691     049D  00BB               	movwf	NumBuilder@Output
  2692     049E                     l1351:
  2693                           
  2694                           ;rendering.c: 146:        Output >>= 1;
  2695     049E  1003               	clrc
  2696     049F  0CBB               	rrf	NumBuilder@Output,f
  2697     04A0                     l1353:
  2698                           
  2699                           ;rendering.c: 147:        Output |= ((Block->GBlock << (character_line)) & 0b10000000);
  2700     04A0  0870               	movf	NumBuilder@Block,w
  2701     04A1  3E06               	addlw	6
  2702     04A2  0086               	movwf	6
  2703     04A3  0187               	clrf	7
  2704     04A4  0801               	movf	1,w
  2705     04A5  00F2               	movwf	??_NumBuilder
  2706     04A6  0A74               	incf	NumBuilder@character_line,w
  2707     04A7  2CA9               	goto	u1744
  2708     04A8                     u1745:
  2709     04A8  35F2               	lslf	??_NumBuilder,f
  2710     04A9                     u1744:
  2711     04A9  0B89               	decfsz	9,f
  2712     04AA  2CA8               	goto	u1745
  2713     04AB  0872               	movf	??_NumBuilder,w
  2714     04AC  3980               	andlw	128
  2715     04AD  00F3               	movwf	??_NumBuilder+1
  2716     04AE  0873               	movf	??_NumBuilder+1,w
  2717     04AF  04BB               	iorwf	NumBuilder@Output,f
  2718                           
  2719                           ;rendering.c: 148:        Output >>= 1;
  2720     04B0  1003               	clrc
  2721     04B1  0CBB               	rrf	NumBuilder@Output,f
  2722     04B2                     l1355:
  2723                           
  2724                           ;rendering.c: 149:        Output |= ((Block->GBlock << (character_line)) & 0b10000000);
  2725     04B2  0870               	movf	NumBuilder@Block,w
  2726     04B3  3E06               	addlw	6
  2727     04B4  0086               	movwf	6
  2728     04B5  0187               	clrf	7
  2729     04B6  0801               	movf	1,w
  2730     04B7  00F2               	movwf	??_NumBuilder
  2731     04B8  0A74               	incf	NumBuilder@character_line,w
  2732     04B9  2CBB               	goto	u1754
  2733     04BA                     u1755:
  2734     04BA  35F2               	lslf	??_NumBuilder,f
  2735     04BB                     u1754:
  2736     04BB  0B89               	decfsz	9,f
  2737     04BC  2CBA               	goto	u1755
  2738     04BD  0872               	movf	??_NumBuilder,w
  2739     04BE  3980               	andlw	128
  2740     04BF  00F3               	movwf	??_NumBuilder+1
  2741     04C0  0873               	movf	??_NumBuilder+1,w
  2742     04C1  04BB               	iorwf	NumBuilder@Output,f
  2743     04C2                     l1357:
  2744                           
  2745                           ;rendering.c: 150:        Output >>= 1;
  2746     04C2  1003               	clrc
  2747     04C3  0CBB               	rrf	NumBuilder@Output,f
  2748                           
  2749                           ;rendering.c: 151:        Output |= ((Block->FBlock << (character_line)) & 0b10000000);
  2750     04C4  0870               	movf	NumBuilder@Block,w
  2751     04C5  3E05               	addlw	5
  2752     04C6  0086               	movwf	6
  2753     04C7  0187               	clrf	7
  2754     04C8  0801               	movf	1,w
  2755     04C9  00F2               	movwf	??_NumBuilder
  2756     04CA  0A74               	incf	NumBuilder@character_line,w
  2757     04CB  2CCD               	goto	u1764
  2758     04CC                     u1765:
  2759     04CC  35F2               	lslf	??_NumBuilder,f
  2760     04CD                     u1764:
  2761     04CD  0B89               	decfsz	9,f
  2762     04CE  2CCC               	goto	u1765
  2763     04CF  0872               	movf	??_NumBuilder,w
  2764     04D0  3980               	andlw	128
  2765     04D1  00F3               	movwf	??_NumBuilder+1
  2766     04D2  0873               	movf	??_NumBuilder+1,w
  2767     04D3  04BB               	iorwf	NumBuilder@Output,f
  2768     04D4                     l1359:
  2769                           
  2770                           ;rendering.c: 152:        Output >>= 1;
  2771     04D4  1003               	clrc
  2772     04D5  0CBB               	rrf	NumBuilder@Output,f
  2773     04D6                     l1361:
  2774                           
  2775                           ;rendering.c: 153:        Output |= ((Block->NBlock << (character_line)) & 0b10000000);
  2776     04D6  0870               	movf	NumBuilder@Block,w
  2777     04D7  3E0D               	addlw	13
  2778     04D8  0086               	movwf	6
  2779     04D9  0187               	clrf	7
  2780     04DA  0801               	movf	1,w
  2781     04DB  00F2               	movwf	??_NumBuilder
  2782     04DC  0A74               	incf	NumBuilder@character_line,w
  2783     04DD  2CDF               	goto	u1774
  2784     04DE                     u1775:
  2785     04DE  35F2               	lslf	??_NumBuilder,f
  2786     04DF                     u1774:
  2787     04DF  0B89               	decfsz	9,f
  2788     04E0  2CDE               	goto	u1775
  2789     04E1  0872               	movf	??_NumBuilder,w
  2790     04E2  3980               	andlw	128
  2791     04E3  00F3               	movwf	??_NumBuilder+1
  2792     04E4  0873               	movf	??_NumBuilder+1,w
  2793     04E5  04BB               	iorwf	NumBuilder@Output,f
  2794                           
  2795                           ;rendering.c: 154:        Output >>= 1;
  2796     04E6  1003               	clrc
  2797     04E7  0CBB               	rrf	NumBuilder@Output,f
  2798     04E8                     l1363:
  2799                           
  2800                           ;rendering.c: 155:        Output |= ((Block->MBlock << (character_line)) & 0b10000000);
  2801     04E8  0870               	movf	NumBuilder@Block,w
  2802     04E9  3E0C               	addlw	12
  2803     04EA  0086               	movwf	6
  2804     04EB  0187               	clrf	7
  2805     04EC  0801               	movf	1,w
  2806     04ED  00F2               	movwf	??_NumBuilder
  2807     04EE  0A74               	incf	NumBuilder@character_line,w
  2808     04EF  2CF1               	goto	u1784
  2809     04F0                     u1785:
  2810     04F0  35F2               	lslf	??_NumBuilder,f
  2811     04F1                     u1784:
  2812     04F1  0B89               	decfsz	9,f
  2813     04F2  2CF0               	goto	u1785
  2814     04F3  0872               	movf	??_NumBuilder,w
  2815     04F4  3980               	andlw	128
  2816     04F5  00F3               	movwf	??_NumBuilder+1
  2817     04F6  0873               	movf	??_NumBuilder+1,w
  2818     04F7  04BB               	iorwf	NumBuilder@Output,f
  2819     04F8                     l1365:
  2820                           
  2821                           ;rendering.c: 156:        Output >>= 1;
  2822     04F8  1003               	clrc
  2823     04F9  0CBB               	rrf	NumBuilder@Output,f
  2824                           
  2825                           ;rendering.c: 157:        Output |= ((Block->LBlock << (character_line)) & 0b10000000);
  2826     04FA  0870               	movf	NumBuilder@Block,w
  2827     04FB  3E0B               	addlw	11
  2828     04FC  0086               	movwf	6
  2829     04FD  0187               	clrf	7
  2830     04FE  0801               	movf	1,w
  2831     04FF  00F2               	movwf	??_NumBuilder
  2832     0500  0A74               	incf	NumBuilder@character_line,w
  2833     0501  2D03               	goto	u1794
  2834     0502                     u1795:
  2835     0502  35F2               	lslf	??_NumBuilder,f
  2836     0503                     u1794:
  2837     0503  0B89               	decfsz	9,f
  2838     0504  2D02               	goto	u1795
  2839     0505  0872               	movf	??_NumBuilder,w
  2840     0506  3980               	andlw	128
  2841     0507  00F3               	movwf	??_NumBuilder+1
  2842     0508  0873               	movf	??_NumBuilder+1,w
  2843     0509  04BB               	iorwf	NumBuilder@Output,f
  2844     050A                     l1367:
  2845                           
  2846                           ;rendering.c: 158:        Output >>= 1;
  2847     050A  1003               	clrc
  2848     050B  0CBB               	rrf	NumBuilder@Output,f
  2849     050C                     l1369:
  2850                           
  2851                           ;rendering.c: 159:        Output |= ((Block->KBlock << (character_line)) & 0b10000000);
  2852     050C  0870               	movf	NumBuilder@Block,w
  2853     050D  3E0A               	addlw	10
  2854     050E  0086               	movwf	6
  2855     050F  0187               	clrf	7
  2856     0510  0801               	movf	1,w
  2857     0511  00F2               	movwf	??_NumBuilder
  2858     0512  0A74               	incf	NumBuilder@character_line,w
  2859     0513  2D15               	goto	u1804
  2860     0514                     u1805:
  2861     0514  35F2               	lslf	??_NumBuilder,f
  2862     0515                     u1804:
  2863     0515  0B89               	decfsz	9,f
  2864     0516  2D14               	goto	u1805
  2865     0517  0872               	movf	??_NumBuilder,w
  2866     0518  3980               	andlw	128
  2867     0519  00F3               	movwf	??_NumBuilder+1
  2868     051A  0873               	movf	??_NumBuilder+1,w
  2869     051B  04BB               	iorwf	NumBuilder@Output,f
  2870     051C                     l1371:
  2871                           
  2872                           ;rendering.c: 162:     if( time == 5){
  2873     051C  3005               	movlw	5
  2874     051D  0671               	xorwf	NumBuilder@time,w
  2875     051E  1D03               	btfss	3,2
  2876     051F  2D21               	goto	u1811
  2877     0520  2D22               	goto	u1810
  2878     0521                     u1811:
  2879     0521  2DAD               	goto	l1395
  2880     0522                     u1810:
  2881     0522                     l1373:
  2882                           
  2883                           ;rendering.c: 164:        Output = ((Block->ABlock << (character_line)) & 0b10000000);
  2884     0522  0870               	movf	NumBuilder@Block,w
  2885     0523  0086               	movwf	6
  2886     0524  0187               	clrf	7
  2887     0525  0801               	movf	1,w
  2888     0526  00F2               	movwf	??_NumBuilder
  2889     0527  0A74               	incf	NumBuilder@character_line,w
  2890     0528  2D2A               	goto	u1824
  2891     0529                     u1825:
  2892     0529  35F2               	lslf	??_NumBuilder,f
  2893     052A                     u1824:
  2894     052A  0B89               	decfsz	9,f
  2895     052B  2D29               	goto	u1825
  2896     052C  0872               	movf	??_NumBuilder,w
  2897     052D  3980               	andlw	128
  2898     052E  0020               	movlb	0	; select bank0
  2899     052F  00BB               	movwf	NumBuilder@Output
  2900     0530                     l1375:
  2901                           
  2902                           ;rendering.c: 165:        Output >>= 1;
  2903     0530  1003               	clrc
  2904     0531  0CBB               	rrf	NumBuilder@Output,f
  2905     0532                     l1377:
  2906                           
  2907                           ;rendering.c: 166:        Output |= ((Block->BBlock << (character_line)) & 0b10000000);
  2908     0532  0A70               	incf	NumBuilder@Block,w
  2909     0533  0086               	movwf	6
  2910     0534  0187               	clrf	7
  2911     0535  0801               	movf	1,w
  2912     0536  00F2               	movwf	??_NumBuilder
  2913     0537  0A74               	incf	NumBuilder@character_line,w
  2914     0538  2D3A               	goto	u1834
  2915     0539                     u1835:
  2916     0539  35F2               	lslf	??_NumBuilder,f
  2917     053A                     u1834:
  2918     053A  0B89               	decfsz	9,f
  2919     053B  2D39               	goto	u1835
  2920     053C  0872               	movf	??_NumBuilder,w
  2921     053D  3980               	andlw	128
  2922     053E  00F3               	movwf	??_NumBuilder+1
  2923     053F  0873               	movf	??_NumBuilder+1,w
  2924     0540  04BB               	iorwf	NumBuilder@Output,f
  2925                           
  2926                           ;rendering.c: 167:        Output >>= 1;
  2927     0541  1003               	clrc
  2928     0542  0CBB               	rrf	NumBuilder@Output,f
  2929     0543                     l1379:
  2930                           
  2931                           ;rendering.c: 168:        Output |= ((Block->JBlock << (character_line)) & 0b10000000);
  2932     0543  0870               	movf	NumBuilder@Block,w
  2933     0544  3E09               	addlw	9
  2934     0545  0086               	movwf	6
  2935     0546  0187               	clrf	7
  2936     0547  0801               	movf	1,w
  2937     0548  00F2               	movwf	??_NumBuilder
  2938     0549  0A74               	incf	NumBuilder@character_line,w
  2939     054A  2D4C               	goto	u1844
  2940     054B                     u1845:
  2941     054B  35F2               	lslf	??_NumBuilder,f
  2942     054C                     u1844:
  2943     054C  0B89               	decfsz	9,f
  2944     054D  2D4B               	goto	u1845
  2945     054E  0872               	movf	??_NumBuilder,w
  2946     054F  3980               	andlw	128
  2947     0550  00F3               	movwf	??_NumBuilder+1
  2948     0551  0873               	movf	??_NumBuilder+1,w
  2949     0552  04BB               	iorwf	NumBuilder@Output,f
  2950     0553                     l1381:
  2951                           
  2952                           ;rendering.c: 169:        Output >>= 1;
  2953     0553  1003               	clrc
  2954     0554  0CBB               	rrf	NumBuilder@Output,f
  2955                           
  2956                           ;rendering.c: 170:        Output |= ((Block->JBlock << (character_line)) & 0b10000000);
  2957     0555  0870               	movf	NumBuilder@Block,w
  2958     0556  3E09               	addlw	9
  2959     0557  0086               	movwf	6
  2960     0558  0187               	clrf	7
  2961     0559  0801               	movf	1,w
  2962     055A  00F2               	movwf	??_NumBuilder
  2963     055B  0A74               	incf	NumBuilder@character_line,w
  2964     055C  2D5E               	goto	u1854
  2965     055D                     u1855:
  2966     055D  35F2               	lslf	??_NumBuilder,f
  2967     055E                     u1854:
  2968     055E  0B89               	decfsz	9,f
  2969     055F  2D5D               	goto	u1855
  2970     0560  0872               	movf	??_NumBuilder,w
  2971     0561  3980               	andlw	128
  2972     0562  00F3               	movwf	??_NumBuilder+1
  2973     0563  0873               	movf	??_NumBuilder+1,w
  2974     0564  04BB               	iorwf	NumBuilder@Output,f
  2975     0565                     l1383:
  2976                           
  2977                           ;rendering.c: 171:        Output >>= 1;
  2978     0565  1003               	clrc
  2979     0566  0CBB               	rrf	NumBuilder@Output,f
  2980     0567                     l1385:
  2981                           
  2982                           ;rendering.c: 172:        Output |= ((Block->OBlock << (character_line)) & 0b10000000);
  2983     0567  0870               	movf	NumBuilder@Block,w
  2984     0568  3E0E               	addlw	14
  2985     0569  0086               	movwf	6
  2986     056A  0187               	clrf	7
  2987     056B  0801               	movf	1,w
  2988     056C  00F2               	movwf	??_NumBuilder
  2989     056D  0A74               	incf	NumBuilder@character_line,w
  2990     056E  2D70               	goto	u1864
  2991     056F                     u1865:
  2992     056F  35F2               	lslf	??_NumBuilder,f
  2993     0570                     u1864:
  2994     0570  0B89               	decfsz	9,f
  2995     0571  2D6F               	goto	u1865
  2996     0572  0872               	movf	??_NumBuilder,w
  2997     0573  3980               	andlw	128
  2998     0574  00F3               	movwf	??_NumBuilder+1
  2999     0575  0873               	movf	??_NumBuilder+1,w
  3000     0576  04BB               	iorwf	NumBuilder@Output,f
  3001                           
  3002                           ;rendering.c: 173:        Output >>= 1;
  3003     0577  1003               	clrc
  3004     0578  0CBB               	rrf	NumBuilder@Output,f
  3005     0579                     l1387:
  3006                           
  3007                           ;rendering.c: 174:        Output |= ((Block->HBlock << (character_line)) & 0b10000000);
  3008     0579  0870               	movf	NumBuilder@Block,w
  3009     057A  3E07               	addlw	7
  3010     057B  0086               	movwf	6
  3011     057C  0187               	clrf	7
  3012     057D  0801               	movf	1,w
  3013     057E  00F2               	movwf	??_NumBuilder
  3014     057F  0A74               	incf	NumBuilder@character_line,w
  3015     0580  2D82               	goto	u1874
  3016     0581                     u1875:
  3017     0581  35F2               	lslf	??_NumBuilder,f
  3018     0582                     u1874:
  3019     0582  0B89               	decfsz	9,f
  3020     0583  2D81               	goto	u1875
  3021     0584  0872               	movf	??_NumBuilder,w
  3022     0585  3980               	andlw	128
  3023     0586  00F3               	movwf	??_NumBuilder+1
  3024     0587  0873               	movf	??_NumBuilder+1,w
  3025     0588  04BB               	iorwf	NumBuilder@Output,f
  3026     0589                     l1389:
  3027                           
  3028                           ;rendering.c: 175:        Output >>= 1;
  3029     0589  1003               	clrc
  3030     058A  0CBB               	rrf	NumBuilder@Output,f
  3031                           
  3032                           ;rendering.c: 176:        Output |= ((Block->HBlock << (character_line)) & 0b10000000);
  3033     058B  0870               	movf	NumBuilder@Block,w
  3034     058C  3E07               	addlw	7
  3035     058D  0086               	movwf	6
  3036     058E  0187               	clrf	7
  3037     058F  0801               	movf	1,w
  3038     0590  00F2               	movwf	??_NumBuilder
  3039     0591  0A74               	incf	NumBuilder@character_line,w
  3040     0592  2D94               	goto	u1884
  3041     0593                     u1885:
  3042     0593  35F2               	lslf	??_NumBuilder,f
  3043     0594                     u1884:
  3044     0594  0B89               	decfsz	9,f
  3045     0595  2D93               	goto	u1885
  3046     0596  0872               	movf	??_NumBuilder,w
  3047     0597  3980               	andlw	128
  3048     0598  00F3               	movwf	??_NumBuilder+1
  3049     0599  0873               	movf	??_NumBuilder+1,w
  3050     059A  04BB               	iorwf	NumBuilder@Output,f
  3051     059B                     l1391:
  3052                           
  3053                           ;rendering.c: 177:        Output >>= 1;
  3054     059B  1003               	clrc
  3055     059C  0CBB               	rrf	NumBuilder@Output,f
  3056     059D                     l1393:
  3057                           
  3058                           ;rendering.c: 178:        Output |= ((Block->FBlock << (character_line)) & 0b10000000);
  3059     059D  0870               	movf	NumBuilder@Block,w
  3060     059E  3E05               	addlw	5
  3061     059F  0086               	movwf	6
  3062     05A0  0187               	clrf	7
  3063     05A1  0801               	movf	1,w
  3064     05A2  00F2               	movwf	??_NumBuilder
  3065     05A3  0A74               	incf	NumBuilder@character_line,w
  3066     05A4  2DA6               	goto	u1894
  3067     05A5                     u1895:
  3068     05A5  35F2               	lslf	??_NumBuilder,f
  3069     05A6                     u1894:
  3070     05A6  0B89               	decfsz	9,f
  3071     05A7  2DA5               	goto	u1895
  3072     05A8  0872               	movf	??_NumBuilder,w
  3073     05A9  3980               	andlw	128
  3074     05AA  00F3               	movwf	??_NumBuilder+1
  3075     05AB  0873               	movf	??_NumBuilder+1,w
  3076     05AC  04BB               	iorwf	NumBuilder@Output,f
  3077     05AD                     l1395:
  3078                           
  3079                           ;rendering.c: 181:     if( time == 6){
  3080     05AD  3006               	movlw	6
  3081     05AE  0671               	xorwf	NumBuilder@time,w
  3082     05AF  1D03               	btfss	3,2
  3083     05B0  2DB2               	goto	u1901
  3084     05B1  2DB3               	goto	u1900
  3085     05B2                     u1901:
  3086     05B2  2E3B               	goto	l1419
  3087     05B3                     u1900:
  3088     05B3                     l1397:
  3089                           
  3090                           ;rendering.c: 183:        Output = ((Block->ABlock << (character_line)) & 0b10000000);
  3091     05B3  0870               	movf	NumBuilder@Block,w
  3092     05B4  0086               	movwf	6
  3093     05B5  0187               	clrf	7
  3094     05B6  0801               	movf	1,w
  3095     05B7  00F2               	movwf	??_NumBuilder
  3096     05B8  0A74               	incf	NumBuilder@character_line,w
  3097     05B9  2DBB               	goto	u1914
  3098     05BA                     u1915:
  3099     05BA  35F2               	lslf	??_NumBuilder,f
  3100     05BB                     u1914:
  3101     05BB  0B89               	decfsz	9,f
  3102     05BC  2DBA               	goto	u1915
  3103     05BD  0872               	movf	??_NumBuilder,w
  3104     05BE  3980               	andlw	128
  3105     05BF  0020               	movlb	0	; select bank0
  3106     05C0  00BB               	movwf	NumBuilder@Output
  3107     05C1                     l1399:
  3108                           
  3109                           ;rendering.c: 184:        Output >>= 1;
  3110     05C1  1003               	clrc
  3111     05C2  0CBB               	rrf	NumBuilder@Output,f
  3112     05C3                     l1401:
  3113                           
  3114                           ;rendering.c: 185:        Output |= ((Block->BBlock << (character_line)) & 0b10000000);
  3115     05C3  0A70               	incf	NumBuilder@Block,w
  3116     05C4  0086               	movwf	6
  3117     05C5  0187               	clrf	7
  3118     05C6  0801               	movf	1,w
  3119     05C7  00F2               	movwf	??_NumBuilder
  3120     05C8  0A74               	incf	NumBuilder@character_line,w
  3121     05C9  2DCB               	goto	u1924
  3122     05CA                     u1925:
  3123     05CA  35F2               	lslf	??_NumBuilder,f
  3124     05CB                     u1924:
  3125     05CB  0B89               	decfsz	9,f
  3126     05CC  2DCA               	goto	u1925
  3127     05CD  0872               	movf	??_NumBuilder,w
  3128     05CE  3980               	andlw	128
  3129     05CF  00F3               	movwf	??_NumBuilder+1
  3130     05D0  0873               	movf	??_NumBuilder+1,w
  3131     05D1  04BB               	iorwf	NumBuilder@Output,f
  3132                           
  3133                           ;rendering.c: 186:        Output >>= 1;
  3134     05D2  1003               	clrc
  3135     05D3  0CBB               	rrf	NumBuilder@Output,f
  3136     05D4                     l1403:
  3137                           
  3138                           ;rendering.c: 187:        Output |= ((Block->BBlock << (character_line)) & 0b10000000);
  3139     05D4  0A70               	incf	NumBuilder@Block,w
  3140     05D5  0086               	movwf	6
  3141     05D6  0187               	clrf	7
  3142     05D7  0801               	movf	1,w
  3143     05D8  00F2               	movwf	??_NumBuilder
  3144     05D9  0A74               	incf	NumBuilder@character_line,w
  3145     05DA  2DDC               	goto	u1934
  3146     05DB                     u1935:
  3147     05DB  35F2               	lslf	??_NumBuilder,f
  3148     05DC                     u1934:
  3149     05DC  0B89               	decfsz	9,f
  3150     05DD  2DDB               	goto	u1935
  3151     05DE  0872               	movf	??_NumBuilder,w
  3152     05DF  3980               	andlw	128
  3153     05E0  00F3               	movwf	??_NumBuilder+1
  3154     05E1  0873               	movf	??_NumBuilder+1,w
  3155     05E2  04BB               	iorwf	NumBuilder@Output,f
  3156     05E3                     l1405:
  3157                           
  3158                           ;rendering.c: 188:        Output >>= 1;
  3159     05E3  1003               	clrc
  3160     05E4  0CBB               	rrf	NumBuilder@Output,f
  3161                           
  3162                           ;rendering.c: 189:        Output |= ((Block->QBlock << (character_line)) & 0b10000000);
  3163     05E5  0870               	movf	NumBuilder@Block,w
  3164     05E6  3E10               	addlw	16
  3165     05E7  0086               	movwf	6
  3166     05E8  0187               	clrf	7
  3167     05E9  0801               	movf	1,w
  3168     05EA  00F2               	movwf	??_NumBuilder
  3169     05EB  0A74               	incf	NumBuilder@character_line,w
  3170     05EC  2DEE               	goto	u1944
  3171     05ED                     u1945:
  3172     05ED  35F2               	lslf	??_NumBuilder,f
  3173     05EE                     u1944:
  3174     05EE  0B89               	decfsz	9,f
  3175     05EF  2DED               	goto	u1945
  3176     05F0  0872               	movf	??_NumBuilder,w
  3177     05F1  3980               	andlw	128
  3178     05F2  00F3               	movwf	??_NumBuilder+1
  3179     05F3  0873               	movf	??_NumBuilder+1,w
  3180     05F4  04BB               	iorwf	NumBuilder@Output,f
  3181     05F5                     l1407:
  3182                           
  3183                           ;rendering.c: 190:        Output >>= 1;
  3184     05F5  1003               	clrc
  3185     05F6  0CBB               	rrf	NumBuilder@Output,f
  3186     05F7                     l1409:
  3187                           
  3188                           ;rendering.c: 191:        Output |= ((Block->PBlock << (character_line)) & 0b10000000);
  3189     05F7  0870               	movf	NumBuilder@Block,w
  3190     05F8  3E0F               	addlw	15
  3191     05F9  0086               	movwf	6
  3192     05FA  0187               	clrf	7
  3193     05FB  0801               	movf	1,w
  3194     05FC  00F2               	movwf	??_NumBuilder
  3195     05FD  0A74               	incf	NumBuilder@character_line,w
  3196     05FE  2E00               	goto	u1954
  3197     05FF                     u1955:
  3198     05FF  35F2               	lslf	??_NumBuilder,f
  3199     0600                     u1954:
  3200     0600  0B89               	decfsz	9,f
  3201     0601  2DFF               	goto	u1955
  3202     0602  0872               	movf	??_NumBuilder,w
  3203     0603  3980               	andlw	128
  3204     0604  00F3               	movwf	??_NumBuilder+1
  3205     0605  0873               	movf	??_NumBuilder+1,w
  3206     0606  04BB               	iorwf	NumBuilder@Output,f
  3207                           
  3208                           ;rendering.c: 192:        Output >>= 1;
  3209     0607  1003               	clrc
  3210     0608  0CBB               	rrf	NumBuilder@Output,f
  3211     0609                     l1411:
  3212                           
  3213                           ;rendering.c: 193:        Output |= ((Block->HBlock << (character_line)) & 0b10000000);
  3214     0609  0870               	movf	NumBuilder@Block,w
  3215     060A  3E07               	addlw	7
  3216     060B  0086               	movwf	6
  3217     060C  0187               	clrf	7
  3218     060D  0801               	movf	1,w
  3219     060E  00F2               	movwf	??_NumBuilder
  3220     060F  0A74               	incf	NumBuilder@character_line,w
  3221     0610  2E12               	goto	u1964
  3222     0611                     u1965:
  3223     0611  35F2               	lslf	??_NumBuilder,f
  3224     0612                     u1964:
  3225     0612  0B89               	decfsz	9,f
  3226     0613  2E11               	goto	u1965
  3227     0614  0872               	movf	??_NumBuilder,w
  3228     0615  3980               	andlw	128
  3229     0616  00F3               	movwf	??_NumBuilder+1
  3230     0617  0873               	movf	??_NumBuilder+1,w
  3231     0618  04BB               	iorwf	NumBuilder@Output,f
  3232     0619                     l1413:
  3233                           
  3234                           ;rendering.c: 194:        Output >>= 1;
  3235     0619  1003               	clrc
  3236     061A  0CBB               	rrf	NumBuilder@Output,f
  3237                           
  3238                           ;rendering.c: 195:        Output |= ((Block->BBlock << (character_line)) & 0b10000000);
  3239     061B  0A70               	incf	NumBuilder@Block,w
  3240     061C  0086               	movwf	6
  3241     061D  0187               	clrf	7
  3242     061E  0801               	movf	1,w
  3243     061F  00F2               	movwf	??_NumBuilder
  3244     0620  0A74               	incf	NumBuilder@character_line,w
  3245     0621  2E23               	goto	u1974
  3246     0622                     u1975:
  3247     0622  35F2               	lslf	??_NumBuilder,f
  3248     0623                     u1974:
  3249     0623  0B89               	decfsz	9,f
  3250     0624  2E22               	goto	u1975
  3251     0625  0872               	movf	??_NumBuilder,w
  3252     0626  3980               	andlw	128
  3253     0627  00F3               	movwf	??_NumBuilder+1
  3254     0628  0873               	movf	??_NumBuilder+1,w
  3255     0629  04BB               	iorwf	NumBuilder@Output,f
  3256     062A                     l1415:
  3257                           
  3258                           ;rendering.c: 196:        Output >>= 1;
  3259     062A  1003               	clrc
  3260     062B  0CBB               	rrf	NumBuilder@Output,f
  3261     062C                     l1417:
  3262                           
  3263                           ;rendering.c: 197:        Output |= ((Block->ABlock << (character_line)) & 0b10000000);
  3264     062C  0870               	movf	NumBuilder@Block,w
  3265     062D  0086               	movwf	6
  3266     062E  0187               	clrf	7
  3267     062F  0801               	movf	1,w
  3268     0630  00F2               	movwf	??_NumBuilder
  3269     0631  0A74               	incf	NumBuilder@character_line,w
  3270     0632  2E34               	goto	u1984
  3271     0633                     u1985:
  3272     0633  35F2               	lslf	??_NumBuilder,f
  3273     0634                     u1984:
  3274     0634  0B89               	decfsz	9,f
  3275     0635  2E33               	goto	u1985
  3276     0636  0872               	movf	??_NumBuilder,w
  3277     0637  3980               	andlw	128
  3278     0638  00F3               	movwf	??_NumBuilder+1
  3279     0639  0873               	movf	??_NumBuilder+1,w
  3280     063A  04BB               	iorwf	NumBuilder@Output,f
  3281     063B                     l1419:
  3282                           
  3283                           ;rendering.c: 200:     if( time == 7){
  3284     063B  3007               	movlw	7
  3285     063C  0671               	xorwf	NumBuilder@time,w
  3286     063D  1D03               	btfss	3,2
  3287     063E  2E40               	goto	u1991
  3288     063F  2E41               	goto	u1990
  3289     0640                     u1991:
  3290     0640  2ECE               	goto	l1443
  3291     0641                     u1990:
  3292     0641                     l1421:
  3293                           
  3294                           ;rendering.c: 202:        Output = ((Block->HBlock << (character_line)) & 0b10000000);
  3295     0641  0870               	movf	NumBuilder@Block,w
  3296     0642  3E07               	addlw	7
  3297     0643  0086               	movwf	6
  3298     0644  0187               	clrf	7
  3299     0645  0801               	movf	1,w
  3300     0646  00F2               	movwf	??_NumBuilder
  3301     0647  0A74               	incf	NumBuilder@character_line,w
  3302     0648  2E4A               	goto	u2004
  3303     0649                     u2005:
  3304     0649  35F2               	lslf	??_NumBuilder,f
  3305     064A                     u2004:
  3306     064A  0B89               	decfsz	9,f
  3307     064B  2E49               	goto	u2005
  3308     064C  0872               	movf	??_NumBuilder,w
  3309     064D  3980               	andlw	128
  3310     064E  0020               	movlb	0	; select bank0
  3311     064F  00BB               	movwf	NumBuilder@Output
  3312     0650                     l1423:
  3313                           
  3314                           ;rendering.c: 203:        Output >>= 1;
  3315     0650  1003               	clrc
  3316     0651  0CBB               	rrf	NumBuilder@Output,f
  3317     0652                     l1425:
  3318                           
  3319                           ;rendering.c: 204:        Output |= ((Block->HBlock << (character_line)) & 0b10000000);
  3320     0652  0870               	movf	NumBuilder@Block,w
  3321     0653  3E07               	addlw	7
  3322     0654  0086               	movwf	6
  3323     0655  0187               	clrf	7
  3324     0656  0801               	movf	1,w
  3325     0657  00F2               	movwf	??_NumBuilder
  3326     0658  0A74               	incf	NumBuilder@character_line,w
  3327     0659  2E5B               	goto	u2014
  3328     065A                     u2015:
  3329     065A  35F2               	lslf	??_NumBuilder,f
  3330     065B                     u2014:
  3331     065B  0B89               	decfsz	9,f
  3332     065C  2E5A               	goto	u2015
  3333     065D  0872               	movf	??_NumBuilder,w
  3334     065E  3980               	andlw	128
  3335     065F  00F3               	movwf	??_NumBuilder+1
  3336     0660  0873               	movf	??_NumBuilder+1,w
  3337     0661  04BB               	iorwf	NumBuilder@Output,f
  3338                           
  3339                           ;rendering.c: 205:        Output >>= 1;
  3340     0662  1003               	clrc
  3341     0663  0CBB               	rrf	NumBuilder@Output,f
  3342     0664                     l1427:
  3343                           
  3344                           ;rendering.c: 206:        Output |= ((Block->SBlock << (character_line)) & 0b10000000);
  3345     0664  0870               	movf	NumBuilder@Block,w
  3346     0665  3E12               	addlw	18
  3347     0666  0086               	movwf	6
  3348     0667  0187               	clrf	7
  3349     0668  0801               	movf	1,w
  3350     0669  00F2               	movwf	??_NumBuilder
  3351     066A  0A74               	incf	NumBuilder@character_line,w
  3352     066B  2E6D               	goto	u2024
  3353     066C                     u2025:
  3354     066C  35F2               	lslf	??_NumBuilder,f
  3355     066D                     u2024:
  3356     066D  0B89               	decfsz	9,f
  3357     066E  2E6C               	goto	u2025
  3358     066F  0872               	movf	??_NumBuilder,w
  3359     0670  3980               	andlw	128
  3360     0671  00F3               	movwf	??_NumBuilder+1
  3361     0672  0873               	movf	??_NumBuilder+1,w
  3362     0673  04BB               	iorwf	NumBuilder@Output,f
  3363     0674                     l1429:
  3364                           
  3365                           ;rendering.c: 207:        Output >>= 1;
  3366     0674  1003               	clrc
  3367     0675  0CBB               	rrf	NumBuilder@Output,f
  3368                           
  3369                           ;rendering.c: 208:        Output |= ((Block->RBlock << (character_line)) & 0b10000000);
  3370     0676  0870               	movf	NumBuilder@Block,w
  3371     0677  3E11               	addlw	17
  3372     0678  0086               	movwf	6
  3373     0679  0187               	clrf	7
  3374     067A  0801               	movf	1,w
  3375     067B  00F2               	movwf	??_NumBuilder
  3376     067C  0A74               	incf	NumBuilder@character_line,w
  3377     067D  2E7F               	goto	u2034
  3378     067E                     u2035:
  3379     067E  35F2               	lslf	??_NumBuilder,f
  3380     067F                     u2034:
  3381     067F  0B89               	decfsz	9,f
  3382     0680  2E7E               	goto	u2035
  3383     0681  0872               	movf	??_NumBuilder,w
  3384     0682  3980               	andlw	128
  3385     0683  00F3               	movwf	??_NumBuilder+1
  3386     0684  0873               	movf	??_NumBuilder+1,w
  3387     0685  04BB               	iorwf	NumBuilder@Output,f
  3388     0686                     l1431:
  3389                           
  3390                           ;rendering.c: 209:        Output >>= 1;
  3391     0686  1003               	clrc
  3392     0687  0CBB               	rrf	NumBuilder@Output,f
  3393     0688                     l1433:
  3394                           
  3395                           ;rendering.c: 210:        Output |= ((Block->CBlock << (character_line)) & 0b10000000);
  3396     0688  0870               	movf	NumBuilder@Block,w
  3397     0689  3E02               	addlw	2
  3398     068A  0086               	movwf	6
  3399     068B  0187               	clrf	7
  3400     068C  0801               	movf	1,w
  3401     068D  00F2               	movwf	??_NumBuilder
  3402     068E  0A74               	incf	NumBuilder@character_line,w
  3403     068F  2E91               	goto	u2044
  3404     0690                     u2045:
  3405     0690  35F2               	lslf	??_NumBuilder,f
  3406     0691                     u2044:
  3407     0691  0B89               	decfsz	9,f
  3408     0692  2E90               	goto	u2045
  3409     0693  0872               	movf	??_NumBuilder,w
  3410     0694  3980               	andlw	128
  3411     0695  00F3               	movwf	??_NumBuilder+1
  3412     0696  0873               	movf	??_NumBuilder+1,w
  3413     0697  04BB               	iorwf	NumBuilder@Output,f
  3414                           
  3415                           ;rendering.c: 211:        Output >>= 1;
  3416     0698  1003               	clrc
  3417     0699  0CBB               	rrf	NumBuilder@Output,f
  3418     069A                     l1435:
  3419                           
  3420                           ;rendering.c: 212:        Output |= ((Block->GBlock << (character_line)) & 0b10000000);
  3421     069A  0870               	movf	NumBuilder@Block,w
  3422     069B  3E06               	addlw	6
  3423     069C  0086               	movwf	6
  3424     069D  0187               	clrf	7
  3425     069E  0801               	movf	1,w
  3426     069F  00F2               	movwf	??_NumBuilder
  3427     06A0  0A74               	incf	NumBuilder@character_line,w
  3428     06A1  2EA3               	goto	u2054
  3429     06A2                     u2055:
  3430     06A2  35F2               	lslf	??_NumBuilder,f
  3431     06A3                     u2054:
  3432     06A3  0B89               	decfsz	9,f
  3433     06A4  2EA2               	goto	u2055
  3434     06A5  0872               	movf	??_NumBuilder,w
  3435     06A6  3980               	andlw	128
  3436     06A7  00F3               	movwf	??_NumBuilder+1
  3437     06A8  0873               	movf	??_NumBuilder+1,w
  3438     06A9  04BB               	iorwf	NumBuilder@Output,f
  3439     06AA                     l1437:
  3440                           
  3441                           ;rendering.c: 213:        Output >>= 1;
  3442     06AA  1003               	clrc
  3443     06AB  0CBB               	rrf	NumBuilder@Output,f
  3444                           
  3445                           ;rendering.c: 214:        Output |= ((Block->JBlock << (character_line)) & 0b10000000);
  3446     06AC  0870               	movf	NumBuilder@Block,w
  3447     06AD  3E09               	addlw	9
  3448     06AE  0086               	movwf	6
  3449     06AF  0187               	clrf	7
  3450     06B0  0801               	movf	1,w
  3451     06B1  00F2               	movwf	??_NumBuilder
  3452     06B2  0A74               	incf	NumBuilder@character_line,w
  3453     06B3  2EB5               	goto	u2064
  3454     06B4                     u2065:
  3455     06B4  35F2               	lslf	??_NumBuilder,f
  3456     06B5                     u2064:
  3457     06B5  0B89               	decfsz	9,f
  3458     06B6  2EB4               	goto	u2065
  3459     06B7  0872               	movf	??_NumBuilder,w
  3460     06B8  3980               	andlw	128
  3461     06B9  00F3               	movwf	??_NumBuilder+1
  3462     06BA  0873               	movf	??_NumBuilder+1,w
  3463     06BB  04BB               	iorwf	NumBuilder@Output,f
  3464     06BC                     l1439:
  3465                           
  3466                           ;rendering.c: 215:        Output >>= 1;
  3467     06BC  1003               	clrc
  3468     06BD  0CBB               	rrf	NumBuilder@Output,f
  3469     06BE                     l1441:
  3470                           
  3471                           ;rendering.c: 216:        Output |= ((Block->FBlock << (character_line)) & 0b10000000);
  3472     06BE  0870               	movf	NumBuilder@Block,w
  3473     06BF  3E05               	addlw	5
  3474     06C0  0086               	movwf	6
  3475     06C1  0187               	clrf	7
  3476     06C2  0801               	movf	1,w
  3477     06C3  00F2               	movwf	??_NumBuilder
  3478     06C4  0A74               	incf	NumBuilder@character_line,w
  3479     06C5  2EC7               	goto	u2074
  3480     06C6                     u2075:
  3481     06C6  35F2               	lslf	??_NumBuilder,f
  3482     06C7                     u2074:
  3483     06C7  0B89               	decfsz	9,f
  3484     06C8  2EC6               	goto	u2075
  3485     06C9  0872               	movf	??_NumBuilder,w
  3486     06CA  3980               	andlw	128
  3487     06CB  00F3               	movwf	??_NumBuilder+1
  3488     06CC  0873               	movf	??_NumBuilder+1,w
  3489     06CD  04BB               	iorwf	NumBuilder@Output,f
  3490     06CE                     l1443:
  3491                           
  3492                           ;rendering.c: 219:     if( time == 8){
  3493     06CE  3008               	movlw	8
  3494     06CF  0671               	xorwf	NumBuilder@time,w
  3495     06D0  1D03               	btfss	3,2
  3496     06D1  2ED3               	goto	u2081
  3497     06D2  2ED4               	goto	u2080
  3498     06D3                     u2081:
  3499     06D3  2F59               	goto	l1467
  3500     06D4                     u2080:
  3501     06D4                     l1445:
  3502                           
  3503                           ;rendering.c: 221:        Output = ((Block->ABlock << (character_line)) & 0b10000000);
  3504     06D4  0870               	movf	NumBuilder@Block,w
  3505     06D5  0086               	movwf	6
  3506     06D6  0187               	clrf	7
  3507     06D7  0801               	movf	1,w
  3508     06D8  00F2               	movwf	??_NumBuilder
  3509     06D9  0A74               	incf	NumBuilder@character_line,w
  3510     06DA  2EDC               	goto	u2094
  3511     06DB                     u2095:
  3512     06DB  35F2               	lslf	??_NumBuilder,f
  3513     06DC                     u2094:
  3514     06DC  0B89               	decfsz	9,f
  3515     06DD  2EDB               	goto	u2095
  3516     06DE  0872               	movf	??_NumBuilder,w
  3517     06DF  3980               	andlw	128
  3518     06E0  0020               	movlb	0	; select bank0
  3519     06E1  00BB               	movwf	NumBuilder@Output
  3520     06E2                     l1447:
  3521                           
  3522                           ;rendering.c: 222:        Output >>= 1;
  3523     06E2  1003               	clrc
  3524     06E3  0CBB               	rrf	NumBuilder@Output,f
  3525     06E4                     l1449:
  3526                           
  3527                           ;rendering.c: 223:        Output |= ((Block->BBlock << (character_line)) & 0b10000000);
  3528     06E4  0A70               	incf	NumBuilder@Block,w
  3529     06E5  0086               	movwf	6
  3530     06E6  0187               	clrf	7
  3531     06E7  0801               	movf	1,w
  3532     06E8  00F2               	movwf	??_NumBuilder
  3533     06E9  0A74               	incf	NumBuilder@character_line,w
  3534     06EA  2EEC               	goto	u2104
  3535     06EB                     u2105:
  3536     06EB  35F2               	lslf	??_NumBuilder,f
  3537     06EC                     u2104:
  3538     06EC  0B89               	decfsz	9,f
  3539     06ED  2EEB               	goto	u2105
  3540     06EE  0872               	movf	??_NumBuilder,w
  3541     06EF  3980               	andlw	128
  3542     06F0  00F3               	movwf	??_NumBuilder+1
  3543     06F1  0873               	movf	??_NumBuilder+1,w
  3544     06F2  04BB               	iorwf	NumBuilder@Output,f
  3545                           
  3546                           ;rendering.c: 224:        Output >>= 1;
  3547     06F3  1003               	clrc
  3548     06F4  0CBB               	rrf	NumBuilder@Output,f
  3549     06F5                     l1451:
  3550                           
  3551                           ;rendering.c: 225:        Output |= ((Block->BBlock << (character_line)) & 0b10000000);
  3552     06F5  0A70               	incf	NumBuilder@Block,w
  3553     06F6  0086               	movwf	6
  3554     06F7  0187               	clrf	7
  3555     06F8  0801               	movf	1,w
  3556     06F9  00F2               	movwf	??_NumBuilder
  3557     06FA  0A74               	incf	NumBuilder@character_line,w
  3558     06FB  2EFD               	goto	u2114
  3559     06FC                     u2115:
  3560     06FC  35F2               	lslf	??_NumBuilder,f
  3561     06FD                     u2114:
  3562     06FD  0B89               	decfsz	9,f
  3563     06FE  2EFC               	goto	u2115
  3564     06FF  0872               	movf	??_NumBuilder,w
  3565     0700  3980               	andlw	128
  3566     0701  00F3               	movwf	??_NumBuilder+1
  3567     0702  0873               	movf	??_NumBuilder+1,w
  3568     0703  04BB               	iorwf	NumBuilder@Output,f
  3569     0704                     l1453:
  3570                           
  3571                           ;rendering.c: 226:        Output >>= 1;
  3572     0704  1003               	clrc
  3573     0705  0CBB               	rrf	NumBuilder@Output,f
  3574                           
  3575                           ;rendering.c: 227:        Output |= ((Block->BBlock << (character_line)) & 0b10000000);
  3576     0706  0A70               	incf	NumBuilder@Block,w
  3577     0707  0086               	movwf	6
  3578     0708  0187               	clrf	7
  3579     0709  0801               	movf	1,w
  3580     070A  00F2               	movwf	??_NumBuilder
  3581     070B  0A74               	incf	NumBuilder@character_line,w
  3582     070C  2F0E               	goto	u2124
  3583     070D                     u2125:
  3584     070D  35F2               	lslf	??_NumBuilder,f
  3585     070E                     u2124:
  3586     070E  0B89               	decfsz	9,f
  3587     070F  2F0D               	goto	u2125
  3588     0710  0872               	movf	??_NumBuilder,w
  3589     0711  3980               	andlw	128
  3590     0712  00F3               	movwf	??_NumBuilder+1
  3591     0713  0873               	movf	??_NumBuilder+1,w
  3592     0714  04BB               	iorwf	NumBuilder@Output,f
  3593     0715                     l1455:
  3594                           
  3595                           ;rendering.c: 228:        Output >>= 1;
  3596     0715  1003               	clrc
  3597     0716  0CBB               	rrf	NumBuilder@Output,f
  3598     0717                     l1457:
  3599                           
  3600                           ;rendering.c: 229:        Output |= ((Block->ABlock << (character_line)) & 0b10000000);
  3601     0717  0870               	movf	NumBuilder@Block,w
  3602     0718  0086               	movwf	6
  3603     0719  0187               	clrf	7
  3604     071A  0801               	movf	1,w
  3605     071B  00F2               	movwf	??_NumBuilder
  3606     071C  0A74               	incf	NumBuilder@character_line,w
  3607     071D  2F1F               	goto	u2134
  3608     071E                     u2135:
  3609     071E  35F2               	lslf	??_NumBuilder,f
  3610     071F                     u2134:
  3611     071F  0B89               	decfsz	9,f
  3612     0720  2F1E               	goto	u2135
  3613     0721  0872               	movf	??_NumBuilder,w
  3614     0722  3980               	andlw	128
  3615     0723  00F3               	movwf	??_NumBuilder+1
  3616     0724  0873               	movf	??_NumBuilder+1,w
  3617     0725  04BB               	iorwf	NumBuilder@Output,f
  3618                           
  3619                           ;rendering.c: 230:        Output >>= 1;
  3620     0726  1003               	clrc
  3621     0727  0CBB               	rrf	NumBuilder@Output,f
  3622     0728                     l1459:
  3623                           
  3624                           ;rendering.c: 231:        Output |= ((Block->BBlock << (character_line)) & 0b10000000);
  3625     0728  0A70               	incf	NumBuilder@Block,w
  3626     0729  0086               	movwf	6
  3627     072A  0187               	clrf	7
  3628     072B  0801               	movf	1,w
  3629     072C  00F2               	movwf	??_NumBuilder
  3630     072D  0A74               	incf	NumBuilder@character_line,w
  3631     072E  2F30               	goto	u2144
  3632     072F                     u2145:
  3633     072F  35F2               	lslf	??_NumBuilder,f
  3634     0730                     u2144:
  3635     0730  0B89               	decfsz	9,f
  3636     0731  2F2F               	goto	u2145
  3637     0732  0872               	movf	??_NumBuilder,w
  3638     0733  3980               	andlw	128
  3639     0734  00F3               	movwf	??_NumBuilder+1
  3640     0735  0873               	movf	??_NumBuilder+1,w
  3641     0736  04BB               	iorwf	NumBuilder@Output,f
  3642     0737                     l1461:
  3643                           
  3644                           ;rendering.c: 232:        Output >>= 1;
  3645     0737  1003               	clrc
  3646     0738  0CBB               	rrf	NumBuilder@Output,f
  3647                           
  3648                           ;rendering.c: 233:        Output |= ((Block->BBlock << (character_line)) & 0b10000000);
  3649     0739  0A70               	incf	NumBuilder@Block,w
  3650     073A  0086               	movwf	6
  3651     073B  0187               	clrf	7
  3652     073C  0801               	movf	1,w
  3653     073D  00F2               	movwf	??_NumBuilder
  3654     073E  0A74               	incf	NumBuilder@character_line,w
  3655     073F  2F41               	goto	u2154
  3656     0740                     u2155:
  3657     0740  35F2               	lslf	??_NumBuilder,f
  3658     0741                     u2154:
  3659     0741  0B89               	decfsz	9,f
  3660     0742  2F40               	goto	u2155
  3661     0743  0872               	movf	??_NumBuilder,w
  3662     0744  3980               	andlw	128
  3663     0745  00F3               	movwf	??_NumBuilder+1
  3664     0746  0873               	movf	??_NumBuilder+1,w
  3665     0747  04BB               	iorwf	NumBuilder@Output,f
  3666     0748                     l1463:
  3667                           
  3668                           ;rendering.c: 234:        Output >>= 1;
  3669     0748  1003               	clrc
  3670     0749  0CBB               	rrf	NumBuilder@Output,f
  3671     074A                     l1465:
  3672                           
  3673                           ;rendering.c: 235:        Output |= ((Block->ABlock << (character_line)) & 0b10000000);
  3674     074A  0870               	movf	NumBuilder@Block,w
  3675     074B  0086               	movwf	6
  3676     074C  0187               	clrf	7
  3677     074D  0801               	movf	1,w
  3678     074E  00F2               	movwf	??_NumBuilder
  3679     074F  0A74               	incf	NumBuilder@character_line,w
  3680     0750  2F52               	goto	u2164
  3681     0751                     u2165:
  3682     0751  35F2               	lslf	??_NumBuilder,f
  3683     0752                     u2164:
  3684     0752  0B89               	decfsz	9,f
  3685     0753  2F51               	goto	u2165
  3686     0754  0872               	movf	??_NumBuilder,w
  3687     0755  3980               	andlw	128
  3688     0756  00F3               	movwf	??_NumBuilder+1
  3689     0757  0873               	movf	??_NumBuilder+1,w
  3690     0758  04BB               	iorwf	NumBuilder@Output,f
  3691     0759                     l1467:
  3692                           
  3693                           ;rendering.c: 238:     if( time == 9){
  3694     0759  3009               	movlw	9
  3695     075A  0671               	xorwf	NumBuilder@time,w
  3696     075B  1D03               	btfss	3,2
  3697     075C  2F5E               	goto	u2171
  3698     075D  2F5F               	goto	u2170
  3699     075E                     u2171:
  3700     075E  2FE7               	goto	l78
  3701     075F                     u2170:
  3702     075F                     l1469:
  3703                           
  3704                           ;rendering.c: 240:        Output = ((Block->ABlock << (character_line)) & 0b10000000);
  3705     075F  0870               	movf	NumBuilder@Block,w
  3706     0760  0086               	movwf	6
  3707     0761  0187               	clrf	7
  3708     0762  0801               	movf	1,w
  3709     0763  00F2               	movwf	??_NumBuilder
  3710     0764  0A74               	incf	NumBuilder@character_line,w
  3711     0765  2F67               	goto	u2184
  3712     0766                     u2185:
  3713     0766  35F2               	lslf	??_NumBuilder,f
  3714     0767                     u2184:
  3715     0767  0B89               	decfsz	9,f
  3716     0768  2F66               	goto	u2185
  3717     0769  0872               	movf	??_NumBuilder,w
  3718     076A  3980               	andlw	128
  3719     076B  0020               	movlb	0	; select bank0
  3720     076C  00BB               	movwf	NumBuilder@Output
  3721     076D                     l1471:
  3722                           
  3723                           ;rendering.c: 241:        Output >>= 1;
  3724     076D  1003               	clrc
  3725     076E  0CBB               	rrf	NumBuilder@Output,f
  3726     076F                     l1473:
  3727                           
  3728                           ;rendering.c: 242:        Output |= ((Block->BBlock << (character_line)) & 0b10000000);
  3729     076F  0A70               	incf	NumBuilder@Block,w
  3730     0770  0086               	movwf	6
  3731     0771  0187               	clrf	7
  3732     0772  0801               	movf	1,w
  3733     0773  00F2               	movwf	??_NumBuilder
  3734     0774  0A74               	incf	NumBuilder@character_line,w
  3735     0775  2F77               	goto	u2194
  3736     0776                     u2195:
  3737     0776  35F2               	lslf	??_NumBuilder,f
  3738     0777                     u2194:
  3739     0777  0B89               	decfsz	9,f
  3740     0778  2F76               	goto	u2195
  3741     0779  0872               	movf	??_NumBuilder,w
  3742     077A  3980               	andlw	128
  3743     077B  00F3               	movwf	??_NumBuilder+1
  3744     077C  0873               	movf	??_NumBuilder+1,w
  3745     077D  04BB               	iorwf	NumBuilder@Output,f
  3746                           
  3747                           ;rendering.c: 243:        Output >>= 1;
  3748     077E  1003               	clrc
  3749     077F  0CBB               	rrf	NumBuilder@Output,f
  3750     0780                     l1475:
  3751                           
  3752                           ;rendering.c: 244:        Output |= ((Block->JBlock << (character_line)) & 0b10000000);
  3753     0780  0870               	movf	NumBuilder@Block,w
  3754     0781  3E09               	addlw	9
  3755     0782  0086               	movwf	6
  3756     0783  0187               	clrf	7
  3757     0784  0801               	movf	1,w
  3758     0785  00F2               	movwf	??_NumBuilder
  3759     0786  0A74               	incf	NumBuilder@character_line,w
  3760     0787  2F89               	goto	u2204
  3761     0788                     u2205:
  3762     0788  35F2               	lslf	??_NumBuilder,f
  3763     0789                     u2204:
  3764     0789  0B89               	decfsz	9,f
  3765     078A  2F88               	goto	u2205
  3766     078B  0872               	movf	??_NumBuilder,w
  3767     078C  3980               	andlw	128
  3768     078D  00F3               	movwf	??_NumBuilder+1
  3769     078E  0873               	movf	??_NumBuilder+1,w
  3770     078F  04BB               	iorwf	NumBuilder@Output,f
  3771     0790                     l1477:
  3772                           
  3773                           ;rendering.c: 245:        Output >>= 1;
  3774     0790  1003               	clrc
  3775     0791  0CBB               	rrf	NumBuilder@Output,f
  3776                           
  3777                           ;rendering.c: 246:        Output |= ((Block->UBlock << (character_line)) & 0b10000000);
  3778     0792  0870               	movf	NumBuilder@Block,w
  3779     0793  3E14               	addlw	20
  3780     0794  0086               	movwf	6
  3781     0795  0187               	clrf	7
  3782     0796  0801               	movf	1,w
  3783     0797  00F2               	movwf	??_NumBuilder
  3784     0798  0A74               	incf	NumBuilder@character_line,w
  3785     0799  2F9B               	goto	u2214
  3786     079A                     u2215:
  3787     079A  35F2               	lslf	??_NumBuilder,f
  3788     079B                     u2214:
  3789     079B  0B89               	decfsz	9,f
  3790     079C  2F9A               	goto	u2215
  3791     079D  0872               	movf	??_NumBuilder,w
  3792     079E  3980               	andlw	128
  3793     079F  00F3               	movwf	??_NumBuilder+1
  3794     07A0  0873               	movf	??_NumBuilder+1,w
  3795     07A1  04BB               	iorwf	NumBuilder@Output,f
  3796     07A2                     l1479:
  3797                           
  3798                           ;rendering.c: 247:        Output >>= 1;
  3799     07A2  1003               	clrc
  3800     07A3  0CBB               	rrf	NumBuilder@Output,f
  3801     07A4                     l1481:
  3802                           
  3803                           ;rendering.c: 248:        Output |= ((Block->TBlock << (character_line)) & 0b10000000);
  3804     07A4  0870               	movf	NumBuilder@Block,w
  3805     07A5  3E13               	addlw	19
  3806     07A6  0086               	movwf	6
  3807     07A7  0187               	clrf	7
  3808     07A8  0801               	movf	1,w
  3809     07A9  00F2               	movwf	??_NumBuilder
  3810     07AA  0A74               	incf	NumBuilder@character_line,w
  3811     07AB  2FAD               	goto	u2224
  3812     07AC                     u2225:
  3813     07AC  35F2               	lslf	??_NumBuilder,f
  3814     07AD                     u2224:
  3815     07AD  0B89               	decfsz	9,f
  3816     07AE  2FAC               	goto	u2225
  3817     07AF  0872               	movf	??_NumBuilder,w
  3818     07B0  3980               	andlw	128
  3819     07B1  00F3               	movwf	??_NumBuilder+1
  3820     07B2  0873               	movf	??_NumBuilder+1,w
  3821     07B3  04BB               	iorwf	NumBuilder@Output,f
  3822                           
  3823                           ;rendering.c: 249:        Output >>= 1;
  3824     07B4  1003               	clrc
  3825     07B5  0CBB               	rrf	NumBuilder@Output,f
  3826     07B6                     l1483:
  3827                           
  3828                           ;rendering.c: 250:        Output |= ((Block->BBlock << (character_line)) & 0b10000000);
  3829     07B6  0A70               	incf	NumBuilder@Block,w
  3830     07B7  0086               	movwf	6
  3831     07B8  0187               	clrf	7
  3832     07B9  0801               	movf	1,w
  3833     07BA  00F2               	movwf	??_NumBuilder
  3834     07BB  0A74               	incf	NumBuilder@character_line,w
  3835     07BC  2FBE               	goto	u2234
  3836     07BD                     u2235:
  3837     07BD  35F2               	lslf	??_NumBuilder,f
  3838     07BE                     u2234:
  3839     07BE  0B89               	decfsz	9,f
  3840     07BF  2FBD               	goto	u2235
  3841     07C0  0872               	movf	??_NumBuilder,w
  3842     07C1  3980               	andlw	128
  3843     07C2  00F3               	movwf	??_NumBuilder+1
  3844     07C3  0873               	movf	??_NumBuilder+1,w
  3845     07C4  04BB               	iorwf	NumBuilder@Output,f
  3846     07C5                     l1485:
  3847                           
  3848                           ;rendering.c: 251:        Output >>= 1;
  3849     07C5  1003               	clrc
  3850     07C6  0CBB               	rrf	NumBuilder@Output,f
  3851                           
  3852                           ;rendering.c: 252:        Output |= ((Block->BBlock << (character_line)) & 0b10000000);
  3853     07C7  0A70               	incf	NumBuilder@Block,w
  3854     07C8  0086               	movwf	6
  3855     07C9  0187               	clrf	7
  3856     07CA  0801               	movf	1,w
  3857     07CB  00F2               	movwf	??_NumBuilder
  3858     07CC  0A74               	incf	NumBuilder@character_line,w
  3859     07CD  2FCF               	goto	u2244
  3860     07CE                     u2245:
  3861     07CE  35F2               	lslf	??_NumBuilder,f
  3862     07CF                     u2244:
  3863     07CF  0B89               	decfsz	9,f
  3864     07D0  2FCE               	goto	u2245
  3865     07D1  0872               	movf	??_NumBuilder,w
  3866     07D2  3980               	andlw	128
  3867     07D3  00F3               	movwf	??_NumBuilder+1
  3868     07D4  0873               	movf	??_NumBuilder+1,w
  3869     07D5  04BB               	iorwf	NumBuilder@Output,f
  3870     07D6                     l1487:
  3871                           
  3872                           ;rendering.c: 253:        Output >>= 1;
  3873     07D6  1003               	clrc
  3874     07D7  0CBB               	rrf	NumBuilder@Output,f
  3875     07D8                     l1489:
  3876                           
  3877                           ;rendering.c: 254:        Output |= ((Block->ABlock << (character_line)) & 0b10000000);
  3878     07D8  0870               	movf	NumBuilder@Block,w
  3879     07D9  0086               	movwf	6
  3880     07DA  0187               	clrf	7
  3881     07DB  0801               	movf	1,w
  3882     07DC  00F2               	movwf	??_NumBuilder
  3883     07DD  0A74               	incf	NumBuilder@character_line,w
  3884     07DE  2FE0               	goto	u2254
  3885     07DF                     u2255:
  3886     07DF  35F2               	lslf	??_NumBuilder,f
  3887     07E0                     u2254:
  3888     07E0  0B89               	decfsz	9,f
  3889     07E1  2FDF               	goto	u2255
  3890     07E2  0872               	movf	??_NumBuilder,w
  3891     07E3  3980               	andlw	128
  3892     07E4  00F3               	movwf	??_NumBuilder+1
  3893     07E5  0873               	movf	??_NumBuilder+1,w
  3894     07E6  04BB               	iorwf	NumBuilder@Output,f
  3895     07E7                     l78:	
  3896                           ;rendering.c: 255:     }
  3897                           
  3898                           
  3899                           ;rendering.c: 257:     return Output;
  3900     07E7  0020               	movlb	0	; select bank0
  3901     07E8  083B               	movf	NumBuilder@Output,w
  3902     07E9                     l79:
  3903     07E9  0008               	return
  3904     07EA                     __end_of_NumBuilder:
  3905     007E                     btemp	set	126	;btemp
  3906     007E                     wtemp0	set	126
  3907                           
  3908                           	psect	config
  3909                           
  3910                           ;Config register CONFIG1 @ 0x8007
  3911                           ;	Oscillator Selection
  3912                           ;	FOSC = INTOSC, INTOSC oscillator: I/O function on CLKIN pin
  3913                           ;	Watchdog Timer Enable
  3914                           ;	WDTE = OFF, WDT disabled
  3915                           ;	Power-up Timer Enable
  3916                           ;	PWRTE = OFF, PWRT disabled
  3917                           ;	MCLR Pin Function Select
  3918                           ;	MCLRE = ON, MCLR/VPP pin function is MCLR
  3919                           ;	Flash Program Memory Code Protection
  3920                           ;	CP = OFF, Program memory code protection is disabled
  3921                           ;	Data Memory Code Protection
  3922                           ;	CPD = OFF, Data memory code protection is disabled
  3923                           ;	Brown-out Reset Enable
  3924                           ;	BOREN = ON, Brown-out Reset enabled
  3925                           ;	Clock Out Enable
  3926                           ;	CLKOUTEN = OFF, CLKOUT function is disabled. I/O or oscillator function on the CLKOUT 
      +                          pin
  3927                           ;	Internal/External Switchover
  3928                           ;	IESO = ON, Internal/External Switchover mode is enabled
  3929                           ;	Fail-Safe Clock Monitor Enable
  3930                           ;	FCMEN = ON, Fail-Safe Clock Monitor is enabled
  3931     8007                     	org	32775
  3932     8007  3FE4               	dw	16356
  3933                           
  3934                           ;Config register CONFIG2 @ 0x8008
  3935                           ;	Flash Memory Self-Write Protection
  3936                           ;	WRT = OFF, Write protection off
  3937                           ;	PLL Enable
  3938                           ;	PLLEN = OFF, 4x PLL disabled
  3939                           ;	Stack Overflow/Underflow Reset Enable
  3940                           ;	STVREN = ON, Stack Overflow or Underflow will cause a Reset
  3941                           ;	Brown-out Reset Voltage Selection
  3942                           ;	BORV = LO, Brown-out Reset Voltage (Vbor), low trip point selected.
  3943                           ;	In-Circuit Debugger Mode
  3944                           ;	DEBUG = 0x1, unprogrammed default
  3945                           ;	Low-Voltage Programming Enable
  3946                           ;	LVP = ON, Low-voltage programming enabled
  3947     8008                     	org	32776
  3948     8008  3EFF               	dw	16127

Data Sizes:
    Strings     0
    Constant    0
    Data        21
    BSS         16
    Persistent  34
    Stack       0

Auto Spaces:
    Space          Size  Autos    Used
    COMMON           14     14      14
    BANK0            80      1      40
    BANK1            80      0       0
    BANK2            64      0       0

Pointer List with Targets:

    NumBuilder@Block	PTR const struct BlockSet size(1) Largest target is 21
		 -> NumberBlocks(BANK0[21]), 

    Renderer@shift_reg_outputs	PTR struct Render size(1) Largest target is 4
		 -> renderer_outputs(BANK0[4]), 

    Time_deconstruct@output	PTR struct TensOnes size(1) Largest target is 4
		 -> tod_outputs(BANK0[4]), 


Critical Paths under _main in COMMON

    _main->_Time_deconstruct
    _Time_deconstruct->___awdiv

Critical Paths under _main in BANK0

    _main->_Time_deconstruct

Critical Paths under _main in BANK1

    None.

Critical Paths under _main in BANK2

    None.

Call Graph Tables:

 ---------------------------------------------------------------------------------
 (Depth) Function   	        Calls       Base Space   Used Autos Params    Refs
 ---------------------------------------------------------------------------------
 (0) _main                                                 3     3      0    6127
                         _NumBuilder
                           _Renderer
                  _SYSTEM_Initialize
                   _Time_deconstruct
 ---------------------------------------------------------------------------------
 (1) _Time_deconstruct                                     6     3      3    1674
                                              9 COMMON     5     2      3
                                              0 BANK0      1     1      0
                            ___awdiv
                            ___awmod
 ---------------------------------------------------------------------------------
 (2) ___awmod                                              7     3      4     600
                                              0 COMMON     7     3      4
 ---------------------------------------------------------------------------------
 (2) ___awdiv                                              9     5      4     604
                                              0 COMMON     9     5      4
 ---------------------------------------------------------------------------------
 (1) _SYSTEM_Initialize                                    0     0      0       0
              _OSCILLATOR_Initialize
             _PIN_MANAGER_Initialize
                     _WDT_Initialize
 ---------------------------------------------------------------------------------
 (2) _WDT_Initialize                                       0     0      0       0
 ---------------------------------------------------------------------------------
 (2) _PIN_MANAGER_Initialize                               0     0      0       0
 ---------------------------------------------------------------------------------
 (2) _OSCILLATOR_Initialize                                0     0      0       0
 ---------------------------------------------------------------------------------
 (1) _Renderer                                             7     4      3     470
                                              0 COMMON     7     4      3
 ---------------------------------------------------------------------------------
 (1) _NumBuilder                                           5     3      2    3892
                                              0 COMMON     5     3      2
 ---------------------------------------------------------------------------------
 Estimated maximum stack depth 2
 ---------------------------------------------------------------------------------

 Call Graph Graphs:

 _main (ROOT)
   _NumBuilder
   _Renderer
   _SYSTEM_Initialize
     _OSCILLATOR_Initialize
     _PIN_MANAGER_Initialize
     _WDT_Initialize
   _Time_deconstruct
     ___awdiv
     ___awmod

 Address spaces:
Name               Size   Autos  Total    Cost      Usage
BIGRAM              E0      0       0       0        0.0%
EEDATA             100      0       0       0        0.0%
NULL                 0      0       0       0        0.0%
CODE                 0      0       0       0        0.0%
BITCOMMON            E      0       0       1        0.0%
BITSFR0              0      0       0       1        0.0%
SFR0                 0      0       0       1        0.0%
COMMON               E      E       E       2      100.0%
BITSFR1              0      0       0       2        0.0%
SFR1                 0      0       0       2        0.0%
BITSFR2              0      0       0       3        0.0%
SFR2                 0      0       0       3        0.0%
STACK                0      0       0       3        0.0%
BITSFR3              0      0       0       4        0.0%
SFR3                 0      0       0       4        0.0%
ABS                  0      0      36       4        0.0%
BITBANK0            50      0       0       5        0.0%
BITSFR4              0      0       0       5        0.0%
SFR4                 0      0       0       5        0.0%
BANK0               50      1      28       6       50.0%
BITSFR5              0      0       0       6        0.0%
SFR5                 0      0       0       6        0.0%
BITBANK1            50      0       0       7        0.0%
BITSFR6              0      0       0       7        0.0%
SFR6                 0      0       0       7        0.0%
BANK1               50      0       0       8        0.0%
BITSFR7              0      0       0       8        0.0%
SFR7                 0      0       0       8        0.0%
BITBANK2            40      0       0       9        0.0%
BITSFR8              0      0       0       9        0.0%
SFR8                 0      0       0       9        0.0%
BANK2               40      0       0      10        0.0%
BITSFR9              0      0       0      10        0.0%
SFR9                 0      0       0      10        0.0%
BITSFR10             0      0       0      11        0.0%
SFR10                0      0       0      11        0.0%
DATA                 0      0      36      11        0.0%
BITSFR11             0      0       0      12        0.0%
SFR11                0      0       0      12        0.0%
BITSFR12             0      0       0      13        0.0%
SFR12                0      0       0      13        0.0%
BITSFR13             0      0       0      14        0.0%
SFR13                0      0       0      14        0.0%
BITSFR14             0      0       0      15        0.0%
SFR14                0      0       0      15        0.0%
BITSFR15             0      0       0      16        0.0%
SFR15                0      0       0      16        0.0%
BITSFR16             0      0       0      17        0.0%
SFR16                0      0       0      17        0.0%
BITSFR17             0      0       0      18        0.0%
SFR17                0      0       0      18        0.0%
BITSFR18             0      0       0      19        0.0%
SFR18                0      0       0      19        0.0%
BITSFR19             0      0       0      20        0.0%
SFR19                0      0       0      20        0.0%
BITSFR20             0      0       0      21        0.0%
SFR20                0      0       0      21        0.0%
BITSFR21             0      0       0      22        0.0%
SFR21                0      0       0      22        0.0%
BITSFR22             0      0       0      23        0.0%
SFR22                0      0       0      23        0.0%
BITSFR23             0      0       0      24        0.0%
SFR23                0      0       0      24        0.0%
BITSFR24             0      0       0      25        0.0%
SFR24                0      0       0      25        0.0%
BITSFR25             0      0       0      26        0.0%
SFR25                0      0       0      26        0.0%
BITSFR26             0      0       0      27        0.0%
SFR26                0      0       0      27        0.0%
BITSFR27             0      0       0      28        0.0%
SFR27                0      0       0      28        0.0%
BITSFR28             0      0       0      29        0.0%
SFR28                0      0       0      29        0.0%
BITSFR29             0      0       0      30        0.0%
SFR29                0      0       0      30        0.0%
BITSFR30             0      0       0      31        0.0%
SFR30                0      0       0      31        0.0%
BITSFR31             0      0       0      32        0.0%
SFR31                0      0       0      32        0.0%


Microchip Technology PIC Macro Assembler V2.45 build 20230818022343 
Symbol Table                                                                                   Sun Dec 17 12:55:16 2023

                            l25 00D2                              l51 008A                              l45 00A7  
                            l48 009D                              l64 024B                              l84 013A  
                            l78 07E7                              l79 07E9                    ___awdiv@sign 0076  
                           l118 00F6                             l119 00F6                             l424 01EC  
                           l437 018D                    ___awmod@sign 0076                             wreg 0009  
                          l1201 0147                            l1131 00C0                            l1211 015E  
                          l1203 014B                            l1301 036F                            l1141 0097  
                          l1133 00C1                            l1221 0179                            l1213 0162  
                          l1205 0150                            l1311 03B4                            l1303 037E  
                          l1143 009A                            l1135 00C4                            l1231 009E  
                          l1151 018F                            l1215 0166                            l1207 0156  
                          l1223 017F                            l1401 05C3                            l1321 03EA  
                          l1313 03B6                            l1305 0380                            l1145 009B  
                          l1137 00C6                            l1129 00BD                            l1161 01A3  
                          l1153 0193                            l1225 0184                            l1217 0170  
                          l1209 0159                            l1241 021F                            l1233 01EF  
                          l1411 0609                            l1403 05D4                            l1331 0420  
                          l1315 03C8                            l1307 0392                            l1323 03F9  
                          l1251 024D                            l1139 00CD                            l1147 0087  
                          l1171 01B7                            l1163 01A7                            l1155 0198  
                          l1227 0189                            l1219 0174                            l1243 0222  
                          l1235 01F5                            l1421 0641                            l1413 0619  
                          l1405 05E3                            l1341 0465                            l1333 042F  
                          l1325 03FF                            l1317 03D7                            l1309 03A2  
                          l1261 0282                            l1253 0252                            l1501 0135  
                          l1181 01D3                            l1173 01BB                            l1165 01A9  
                          l1157 019A                            l1149 018E                            l1245 0235  
                          l1237 01F7                            l1431 0686                            l1423 0650  
                          l1415 062A                            l1407 05F5                            l1351 049E  
                          l1343 0477                            l1335 0441                            l1327 040D  
                          l1319 03E8                            l1271 02C6                            l1263 0293  
                          l1255 0260                            l1183 01D8                            l1175 01BF  
                          l1167 01AF                            l1159 019E                            l1247 0249  
                          l1239 020A                            l1511 00D6                            l1503 00D3  
                          l1441 06BE                            l1433 0688                            l1425 0652  
                          l1417 062C                            l1409 05F7                            l1361 04D6  
                          l1353 04A0                            l1345 0479                            l1337 0443  
                          l1329 040F                            l1281 02ED                            l1273 02C8  
                          l1265 0295                            l1257 0262                            l1177 01CE  
                          l1169 01B2                            l1185 01DE                            l1193 013B  
                          l1513 00E2                            l1505 00D6                            l1451 06F5  
                          l1435 069A                            l1427 0664                            l1443 06CE  
                          l1419 063B                            l1363 04E8                            l1355 04B2  
                          l1371 051C                            l1339 0455                            l1347 0489  
                          l1291 0335                            l1283 02FF                            l1267 02A6  
                          l1259 0273                            l1275 02D7                            l1187 01E3  
                          l1179 01D2                            l1195 013C                            l1515 00EC  
                          l1507 00D6                            l1461 0737                            l1453 0704  
                          l1445 06D4                            l1437 06AA                            l1429 0674  
                          l1381 0553                            l1373 0522                            l1365 04F8  
                          l1357 04C2                            l1349 048F                            l1293 0345  
                          l1285 030F                            l1277 02DC                            l1269 02B5  
                          l1189 01E8                            l1197 0140                            l1509 00D6  
                          l1471 076D                            l1463 0748                            l1455 0715  
                          l1447 06E2                            l1439 06BC                            l1391 059B  
                          l1383 0565                            l1375 0530                            l1367 050A  
                          l1359 04D4                            l1295 0357                            l1287 0321  
                          l1279 02EB                            l1199 0145                            l1481 07A4  
                          l1473 076F                            l1465 074A                            l1457 0717  
                          l1449 06E4                            l1393 059D                            l1385 0567  
                          l1377 0532                            l1369 050C                            l1297 0359  
                          l1289 0323                            l1483 07B6                            l1475 0780  
                          l1459 0728                            l1467 0759                            l1387 0579  
                          l1379 0543                            l1395 05AD                            l1299 0369  
                          l1485 07C5                            l1477 0790                            l1469 075F  
                          l1397 05B3                            l1389 0589                            l1493 00F9  
                          l1487 07D6                            l1479 07A2                            l1399 05C1  
                          l1495 00FF                            l1489 07D8                            l1497 0117  
                          l1499 0130                            u1200 01BF                            u1201 01BE  
                          u2004 064A                            u1220 01CE                            u1300 0166  
                          u2005 0649                            u1221 01CD                            u1301 0165  
                          u2014 065B                            u1310 0170                            u2015 065A  
                          u1215 01C0                            u1311 016F                            u2104 06EC  
                          u2024 066D                            u1240 01DE                            u1160 0193  
                          u2105 06EB                            u2025 066C                            u1241 01DD  
                          u1225 01CA                            u1161 0192                            u2114 06FD  
                          u2034 067F                            u1250 01E3                            u1170 019E  
                          u1330 017F                            u2115 06FC                            u2035 067E  
                          u1251 01E2                            u1235 01D4                            u1171 019D  
                          u1331 017E                            u1315 016C                            u2204 0789  
                          u2124 070E                            u2044 0691                            u1404 028C  
                          u1180 01AF                            u1340 0184                            u1260 0140  
                          u2205 0788                            u2125 070D                            u2045 0690  
                          u1405 028B                            u1181 01AE                            u1341 0183  
                          u1325 0175                            u1261 013F                            _LATA 010C  
                          u2214 079B                            u2134 071F                            u2054 06A3  
                          u1414 029D                            u1270 014B                            u1350 01F5  
                          _LATB 010D                            u2215 079A                            u2135 071E  
                          u2055 06A2                            u1415 029C                            u1271 014A  
                          u1351 01F4                            u2224 07AD                            u2144 0730  
                          u2080 06D4                            u2064 06B5                            u1504 032C  
                          u1424 02AE                            u1360 0252                            u1280 0156  
                          u2225 07AC                            u2145 072F                            u2081 06D3  
                          u2065 06B4                            u1505 032B                            u1425 02AD  
                          u1361 0251                            u1281 0155                            u2234 07BE  
                          u2170 075F                            u2154 0741                            u2074 06C7  
                          u1514 033E                            u1450 02DC                            u1434 02BF  
                          u2235 07BD                            u2171 075E                            u2155 0740  
                          u2075 06C6                            u1515 033D                            u1451 02DB  
                          u1435 02BE                            u1195 01B3                            u2244 07CF  
                          u2164 0752                            u1604 03D0                            u1540 036F  
                          u1524 0350                            u1444 02D0                            u2260 00FF  
                          u2245 07CE                            u2165 0751                            u1605 03CF  
                          u1541 036E                            u1525 034F                            u1445 02CF  
                          u2261 00FE                            u2254 07E0                            u2094 06DC  
                          u1630 03FF                            u1614 03E1                            u1534 0362  
                          u1374 025A                            u2255 07DF                            u2095 06DB  
                          u1631 03FE                            u1615 03E0                            u1535 0361  
                          u1375 0259                            u1295 015A                            u2184 0767  
                          u1720 048F                            u1704 0470                            u1624 03F2  
                          u1464 02E5                            u1384 026A                            u2185 0766  
                          u1721 048E                            u1705 046F                            u1625 03F1  
                          u1465 02E4                            u1385 0269                            u2194 0777  
                          u1810 0522                            u1714 0482                            u1554 0378  
                          u1474 02F6                            u1394 027B                            u2274 010D  
                          u2195 0776                            u1811 0521                            u1715 0481  
                          u1555 0377                            u1475 02F5                            u1395 027A  
                          u2275 010A                            u1900 05B3                            u1804 0515  
                          u1644 0407                            u1564 0389                            u1484 0308  
                          u2284 012C                            u1901 05B2                            u1805 0514  
                          u1645 0406                            u1565 0388                            u1485 0307  
                          u2285 0129                            u1734 0498                            u1654 0417  
                          u1574 039B                            u1494 031A                            u1735 0497  
                          u1655 0416                            u1575 039A                            u1495 0319  
                          u1824 052A                            u1744 04A9                            u1664 0428  
                          u1584 03AD                            u1825 0529                            u1745 04A8  
                          u1665 0427                            u1585 03AC                            u1914 05BB  
                          u1834 053A                            u1754 04BB                            u1674 043A  
                          u1594 03BF                            u1915 05BA                            u1835 0539  
                          u1755 04BA                            u1675 0439                            u1595 03BE  
                          u1924 05CB                            u1844 054C                            u1764 04CD  
                          u1684 044C                            u1925 05CA                            u1845 054B  
                          u1765 04CC                            u1685 044B                            u1934 05DC  
                          u1854 055E                            u1774 04DF                            u1694 045E  
                          u1935 05DB                            u1855 055D                            u1775 04DE  
                          u1695 045D                            u1944 05EE                            u1864 0570  
                          u1784 04F1                            u1945 05ED                            u1865 056F  
                          u1785 04F0                            u1954 0600                            u1874 0582  
                          u1794 0503                            u1955 05FF                            u1875 0581  
                          u1795 0502                            u1964 0612                            u1884 0594  
                          u1965 0611                            u1885 0593                            u1990 0641  
                          u1974 0623                            u1894 05A6                            u1991 0640  
                          u1975 0622                            u1895 05A5                            u1984 0634  
                          u1985 0633                            _WPUA 020C                            _WPUB 020D  
                          _main 00D3                            fsr0h 0005                            fsr1h 0007  
                          indf0 0000                            fsr0l 0004                            indf1 0001  
                          fsr1l 0006                            btemp 007E                            start 0001  
 __end_of_OSCILLATOR_Initialize 009E                           ?_main 0070                 __end_of___awdiv 01ED  
               __end_of___awmod 018E                 ___awdiv@divisor 0070                 ___awdiv@counter 0075  
                         _TRISA 008C                           _TRISB 008D                           _Flags 0035  
                _character_line 0045                  _WDT_Initialize 0087                _Time_deconstruct 01ED  
                         status 0003                           wtemp0 007E                 __initialization 07EA  
                  __end_of_main 00F8                          ??_main 007E                __end_of_Renderer 013B  
        __end_of_WDT_Initialize 008B                ___awdiv@dividend 0072                          _ANSELA 018C  
                        _ANSELB 018D                          _BORCON 0116                      _NumBuilder 024C  
                        _OSCCON 0099                          _WDTCON 0097                       ??___awdiv 0074  
                     ??___awmod 0074                ___awdiv@quotient 0077                 ___awmod@divisor 0070  
               ___awmod@counter 0075                 ?_WDT_Initialize 0070     Time_deconstruct@access_line 0047  
             _SYSTEM_Initialize 009E         __end_of__initialization 07FE              ?_SYSTEM_Initialize 0070  
                __pcstackCOMMON 0070                    __pidataBANK0 00A8             ??_SYSTEM_Initialize 0070  
                _OPTION_REGbits 0095       __end_of_SYSTEM_Initialize 00A8                      __pbssBANK0 0035  
                   ?_NumBuilder 0070                       ?_Renderer 0070                NumBuilder@Output 003B  
                    __pmaintext 00D3                  NumBuilder@time 0071        __end_of_Time_deconstruct 024C  
                       _APFCON0 011D                         _APFCON1 011E                         _OSCTUNE 0098  
      NumBuilder@character_line 0074                      ??_Renderer 0073                         ___awdiv 018E  
                       ___awmod 013B                         __ptext1 01ED                         __ptext2 013B  
                       __ptext3 018E                         __ptext4 009E                         __ptext5 0087  
                       __ptext6 00BD                         __ptext7 0097                         __ptext8 00F8  
                       __ptext9 024C           _OSCILLATOR_Initialize 0097                ___awmod@dividend 0072  
      ??_PIN_MANAGER_Initialize 0070           Time_deconstruct@hours 0079                         clrloop0 008C  
          end_of_initialization 07FE        Renderer@left_common_line 0076                         init_ram 0091  
                       initloop 0092                ??_WDT_Initialize 0070             Renderer@access_line 0071  
        ?_OSCILLATOR_Initialize 0070             start_initialization 07EA                    ??_NumBuilder 0072  
                   __pdataBANK0 0020               ?_Time_deconstruct 0079              __end_of_NumBuilder 07EA  
            ??_Time_deconstruct 007C  Time_deconstruct@character_line 003C                       ___latbits 0000  
                 __pcstackBANK0 0047                       __pnvBANK0 0045                 NumBuilder@Block 0070  
                     _char_line 003A          _PIN_MANAGER_Initialize 00BD                        ?___awdiv 0070  
                      ?___awmod 0070                       clear_ram0 008B         Time_deconstruct@minutes 007A  
                   _display_num 0046                        _Renderer 00F8         ??_OSCILLATOR_Initialize 0070  
                  _NumberBlocks 0020                _renderer_outputs 003D       Renderer@shift_reg_outputs 0072  
        Time_deconstruct@output 007B       Renderer@right_common_line 0070         ?_PIN_MANAGER_Initialize 0070  
                   _time_of_day 0038  __end_of_PIN_MANAGER_Initialize 00D3                     _tod_outputs 0041  
