

Microchip MPLAB XC8 Assembler V2.45 build 20230818022343 
                                                                                               Sun Feb 18 21:22:50 2024

Microchip MPLAB XC8 C Compiler v2.45 (Free license) build 20230818022343 Og9 
     1                           	processor	16LF1826
     2                           	pagewidth 120
     3                           	opt	flic
     4                           	psect	idataBANK0,global,class=CODE,delta=2,noexec
     5                           	psect	nvCOMMON,global,class=COMMON,space=1,delta=1,noexec
     6                           	psect	nvBANK0,global,class=BANK0,space=1,delta=1,noexec
     7                           	psect	cinit,global,class=CODE,merge=1,delta=2
     8                           	psect	bssCOMMON,global,class=COMMON,space=1,delta=1,noexec
     9                           	psect	bssBANK0,global,class=BANK0,space=1,delta=1,noexec
    10                           	psect	dataBANK0,global,class=BANK0,space=1,delta=1,noexec
    11                           	psect	inittext,global,class=CODE,delta=2
    12                           	psect	cstackCOMMON,global,class=COMMON,space=1,delta=1,noexec
    13                           	psect	maintext,global,class=CODE,merge=1,split=1,delta=2
    14                           	psect	text1,local,class=CODE,merge=1,delta=2
    15                           	psect	text2,local,class=CODE,merge=1,delta=2
    16                           	psect	text3,local,class=CODE,merge=1,delta=2
    17                           	psect	text4,local,class=CODE,merge=1,delta=2
    18                           	psect	text5,local,class=CODE,merge=1,delta=2
    19                           	psect	text6,local,class=CODE,merge=1,delta=2
    20                           	psect	text7,local,class=CODE,merge=1,delta=2
    21                           	psect	text8,local,class=CODE,merge=1,delta=2
    22                           	psect	text9,local,class=CODE,merge=1,delta=2
    23                           	psect	text10,local,class=CODE,merge=1,delta=2
    24                           	psect	intentry,global,class=CODE,delta=2
    25                           	psect	text12,local,class=CODE,merge=1,delta=2
    26                           	psect	text13,local,class=CODE,merge=1,delta=2
    27                           	psect	config,global,abs,ovrld,class=CONFIG,space=4,delta=2,noexec
    28                           	dabs	1,0x7E,2
    29     0000                     
    30                           ; Generated 06/07/2023 GMT
    31                           ; 
    32                           ; Copyright © 2023, Microchip Technology Inc. and its subsidiaries ("Microchip")
    33                           ; All rights reserved.
    34                           ; 
    35                           ; This software is developed by Microchip Technology Inc. and its subsidiaries ("Microch
      +                          ip").
    36                           ; 
    37                           ; Redistribution and use in source and binary forms, with or without modification, are
    38                           ; permitted provided that the following conditions are met:
    39                           ; 
    40                           ;     1. Redistributions of source code must retain the above copyright notice, this lis
      +                          t of
    41                           ;        conditions and the following disclaimer.
    42                           ; 
    43                           ;     2. Redistributions in binary form must reproduce the above copyright notice, this 
      +                          list
    44                           ;        of conditions and the following disclaimer in the documentation and/or other
    45                           ;        materials provided with the distribution. Publication is not required when
    46                           ;        this file is used in an embedded application.
    47                           ; 
    48                           ;     3. Microchip's name may not be used to endorse or promote products derived from th
      +                          is
    49                           ;        software without specific prior written permission.
    50                           ; 
    51                           ; THIS SOFTWARE IS PROVIDED BY MICROCHIP "AS IS" AND ANY EXPRESS OR IMPLIED WARRANTIES,
    52                           ; INCLUDING, BUT NOT LIMITED TO, THE IMPLIED WARRANTIES OF MERCHANTABILITY AND FITNESS F
      +                          OR
    53                           ; PURPOSE ARE DISCLAIMED.  IN NO EVENT SHALL MICROCHIP BE LIABLE FOR ANY DIRECT, INDIREC
      +                          T,
    54                           ; INCIDENTAL, SPECIAL, EXEMPLARY, OR CONSEQUENTIAL DAMAGES (INCLUDING BUT NOT LIMITED TO
    55                           ; PROCUREMENT OF SUBSTITUTE GOODS OR SERVICES; LOSS OF USE, DATA OR PROFITS; OR BUSINESS
    56                           ; INTERRUPTION) HOWSOEVER CAUSED AND ON ANY THEORY OF LIABILITY, WHETHER IN CONTRACT, ST
      +                          RICT
    57                           ; LIABILITY, OR TORT (INCLUDING NEGLIGENCE OR OTHERWISE) ARISING IN ANY WAY OUT OF THE U
      +                          SE OF
    58                           ; THIS SOFTWARE, EVEN IF ADVISED OF THE POSSIBILITY OF SUCH DAMAGE.
    59                           ; 
    60                           ; 
    61                           ; Code-generator required, PIC16LF1826 Definitions
    62                           ; 
    63                           ; SFR Addresses
    64     0000                     	;# 
    65     0001                     	;# 
    66     0002                     	;# 
    67     0003                     	;# 
    68     0004                     	;# 
    69     0005                     	;# 
    70     0006                     	;# 
    71     0007                     	;# 
    72     0008                     	;# 
    73     0009                     	;# 
    74     000A                     	;# 
    75     000B                     	;# 
    76     000C                     	;# 
    77     000D                     	;# 
    78     0011                     	;# 
    79     0012                     	;# 
    80     0015                     	;# 
    81     0016                     	;# 
    82     0016                     	;# 
    83     0017                     	;# 
    84     0018                     	;# 
    85     0019                     	;# 
    86     001A                     	;# 
    87     001B                     	;# 
    88     001C                     	;# 
    89     001E                     	;# 
    90     001F                     	;# 
    91     008C                     	;# 
    92     008D                     	;# 
    93     0091                     	;# 
    94     0092                     	;# 
    95     0095                     	;# 
    96     0096                     	;# 
    97     0097                     	;# 
    98     0098                     	;# 
    99     0099                     	;# 
   100     009A                     	;# 
   101     009B                     	;# 
   102     009B                     	;# 
   103     009C                     	;# 
   104     009D                     	;# 
   105     009E                     	;# 
   106     010C                     	;# 
   107     010D                     	;# 
   108     0111                     	;# 
   109     0112                     	;# 
   110     0113                     	;# 
   111     0114                     	;# 
   112     0115                     	;# 
   113     0116                     	;# 
   114     0117                     	;# 
   115     0118                     	;# 
   116     0119                     	;# 
   117     011A                     	;# 
   118     011B                     	;# 
   119     011D                     	;# 
   120     011E                     	;# 
   121     018C                     	;# 
   122     018D                     	;# 
   123     0191                     	;# 
   124     0191                     	;# 
   125     0192                     	;# 
   126     0193                     	;# 
   127     0193                     	;# 
   128     0193                     	;# 
   129     0194                     	;# 
   130     0195                     	;# 
   131     0196                     	;# 
   132     0199                     	;# 
   133     019A                     	;# 
   134     019B                     	;# 
   135     019B                     	;# 
   136     019B                     	;# 
   137     019B                     	;# 
   138     019C                     	;# 
   139     019C                     	;# 
   140     019D                     	;# 
   141     019E                     	;# 
   142     019F                     	;# 
   143     020C                     	;# 
   144     020D                     	;# 
   145     0211                     	;# 
   146     0211                     	;# 
   147     0212                     	;# 
   148     0212                     	;# 
   149     0213                     	;# 
   150     0213                     	;# 
   151     0214                     	;# 
   152     0214                     	;# 
   153     0215                     	;# 
   154     0215                     	;# 
   155     0215                     	;# 
   156     0216                     	;# 
   157     0216                     	;# 
   158     0217                     	;# 
   159     0217                     	;# 
   160     0291                     	;# 
   161     0291                     	;# 
   162     0292                     	;# 
   163     0293                     	;# 
   164     0294                     	;# 
   165     0295                     	;# 
   166     0295                     	;# 
   167     0296                     	;# 
   168     0394                     	;# 
   169     0395                     	;# 
   170     0396                     	;# 
   171     039A                     	;# 
   172     039C                     	;# 
   173     039D                     	;# 
   174     039E                     	;# 
   175     039F                     	;# 
   176     0FE4                     	;# 
   177     0FE5                     	;# 
   178     0FE6                     	;# 
   179     0FE7                     	;# 
   180     0FE8                     	;# 
   181     0FE9                     	;# 
   182     0FEA                     	;# 
   183     0FEB                     	;# 
   184     0FED                     	;# 
   185     0FEE                     	;# 
   186     0FEF                     	;# 
   187     0000                     	;# 
   188     0001                     	;# 
   189     0002                     	;# 
   190     0003                     	;# 
   191     0004                     	;# 
   192     0005                     	;# 
   193     0006                     	;# 
   194     0007                     	;# 
   195     0008                     	;# 
   196     0009                     	;# 
   197     000A                     	;# 
   198     000B                     	;# 
   199     000C                     	;# 
   200     000D                     	;# 
   201     0011                     	;# 
   202     0012                     	;# 
   203     0015                     	;# 
   204     0016                     	;# 
   205     0016                     	;# 
   206     0017                     	;# 
   207     0018                     	;# 
   208     0019                     	;# 
   209     001A                     	;# 
   210     001B                     	;# 
   211     001C                     	;# 
   212     001E                     	;# 
   213     001F                     	;# 
   214     008C                     	;# 
   215     008D                     	;# 
   216     0091                     	;# 
   217     0092                     	;# 
   218     0095                     	;# 
   219     0096                     	;# 
   220     0097                     	;# 
   221     0098                     	;# 
   222     0099                     	;# 
   223     009A                     	;# 
   224     009B                     	;# 
   225     009B                     	;# 
   226     009C                     	;# 
   227     009D                     	;# 
   228     009E                     	;# 
   229     010C                     	;# 
   230     010D                     	;# 
   231     0111                     	;# 
   232     0112                     	;# 
   233     0113                     	;# 
   234     0114                     	;# 
   235     0115                     	;# 
   236     0116                     	;# 
   237     0117                     	;# 
   238     0118                     	;# 
   239     0119                     	;# 
   240     011A                     	;# 
   241     011B                     	;# 
   242     011D                     	;# 
   243     011E                     	;# 
   244     018C                     	;# 
   245     018D                     	;# 
   246     0191                     	;# 
   247     0191                     	;# 
   248     0192                     	;# 
   249     0193                     	;# 
   250     0193                     	;# 
   251     0193                     	;# 
   252     0194                     	;# 
   253     0195                     	;# 
   254     0196                     	;# 
   255     0199                     	;# 
   256     019A                     	;# 
   257     019B                     	;# 
   258     019B                     	;# 
   259     019B                     	;# 
   260     019B                     	;# 
   261     019C                     	;# 
   262     019C                     	;# 
   263     019D                     	;# 
   264     019E                     	;# 
   265     019F                     	;# 
   266     020C                     	;# 
   267     020D                     	;# 
   268     0211                     	;# 
   269     0211                     	;# 
   270     0212                     	;# 
   271     0212                     	;# 
   272     0213                     	;# 
   273     0213                     	;# 
   274     0214                     	;# 
   275     0214                     	;# 
   276     0215                     	;# 
   277     0215                     	;# 
   278     0215                     	;# 
   279     0216                     	;# 
   280     0216                     	;# 
   281     0217                     	;# 
   282     0217                     	;# 
   283     0291                     	;# 
   284     0291                     	;# 
   285     0292                     	;# 
   286     0293                     	;# 
   287     0294                     	;# 
   288     0295                     	;# 
   289     0295                     	;# 
   290     0296                     	;# 
   291     0394                     	;# 
   292     0395                     	;# 
   293     0396                     	;# 
   294     039A                     	;# 
   295     039C                     	;# 
   296     039D                     	;# 
   297     039E                     	;# 
   298     039F                     	;# 
   299     0FE4                     	;# 
   300     0FE5                     	;# 
   301     0FE6                     	;# 
   302     0FE7                     	;# 
   303     0FE8                     	;# 
   304     0FE9                     	;# 
   305     0FEA                     	;# 
   306     0FEB                     	;# 
   307     0FED                     	;# 
   308     0FEE                     	;# 
   309     0FEF                     	;# 
   310     0000                     	;# 
   311     0001                     	;# 
   312     0002                     	;# 
   313     0003                     	;# 
   314     0004                     	;# 
   315     0005                     	;# 
   316     0006                     	;# 
   317     0007                     	;# 
   318     0008                     	;# 
   319     0009                     	;# 
   320     000A                     	;# 
   321     000B                     	;# 
   322     000C                     	;# 
   323     000D                     	;# 
   324     0011                     	;# 
   325     0012                     	;# 
   326     0015                     	;# 
   327     0016                     	;# 
   328     0016                     	;# 
   329     0017                     	;# 
   330     0018                     	;# 
   331     0019                     	;# 
   332     001A                     	;# 
   333     001B                     	;# 
   334     001C                     	;# 
   335     001E                     	;# 
   336     001F                     	;# 
   337     008C                     	;# 
   338     008D                     	;# 
   339     0091                     	;# 
   340     0092                     	;# 
   341     0095                     	;# 
   342     0096                     	;# 
   343     0097                     	;# 
   344     0098                     	;# 
   345     0099                     	;# 
   346     009A                     	;# 
   347     009B                     	;# 
   348     009B                     	;# 
   349     009C                     	;# 
   350     009D                     	;# 
   351     009E                     	;# 
   352     010C                     	;# 
   353     010D                     	;# 
   354     0111                     	;# 
   355     0112                     	;# 
   356     0113                     	;# 
   357     0114                     	;# 
   358     0115                     	;# 
   359     0116                     	;# 
   360     0117                     	;# 
   361     0118                     	;# 
   362     0119                     	;# 
   363     011A                     	;# 
   364     011B                     	;# 
   365     011D                     	;# 
   366     011E                     	;# 
   367     018C                     	;# 
   368     018D                     	;# 
   369     0191                     	;# 
   370     0191                     	;# 
   371     0192                     	;# 
   372     0193                     	;# 
   373     0193                     	;# 
   374     0193                     	;# 
   375     0194                     	;# 
   376     0195                     	;# 
   377     0196                     	;# 
   378     0199                     	;# 
   379     019A                     	;# 
   380     019B                     	;# 
   381     019B                     	;# 
   382     019B                     	;# 
   383     019B                     	;# 
   384     019C                     	;# 
   385     019C                     	;# 
   386     019D                     	;# 
   387     019E                     	;# 
   388     019F                     	;# 
   389     020C                     	;# 
   390     020D                     	;# 
   391     0211                     	;# 
   392     0211                     	;# 
   393     0212                     	;# 
   394     0212                     	;# 
   395     0213                     	;# 
   396     0213                     	;# 
   397     0214                     	;# 
   398     0214                     	;# 
   399     0215                     	;# 
   400     0215                     	;# 
   401     0215                     	;# 
   402     0216                     	;# 
   403     0216                     	;# 
   404     0217                     	;# 
   405     0217                     	;# 
   406     0291                     	;# 
   407     0291                     	;# 
   408     0292                     	;# 
   409     0293                     	;# 
   410     0294                     	;# 
   411     0295                     	;# 
   412     0295                     	;# 
   413     0296                     	;# 
   414     0394                     	;# 
   415     0395                     	;# 
   416     0396                     	;# 
   417     039A                     	;# 
   418     039C                     	;# 
   419     039D                     	;# 
   420     039E                     	;# 
   421     039F                     	;# 
   422     0FE4                     	;# 
   423     0FE5                     	;# 
   424     0FE6                     	;# 
   425     0FE7                     	;# 
   426     0FE8                     	;# 
   427     0FE9                     	;# 
   428     0FEA                     	;# 
   429     0FEB                     	;# 
   430     0FED                     	;# 
   431     0FEE                     	;# 
   432     0FEF                     	;# 
   433     0000                     	;# 
   434     0001                     	;# 
   435     0002                     	;# 
   436     0003                     	;# 
   437     0004                     	;# 
   438     0005                     	;# 
   439     0006                     	;# 
   440     0007                     	;# 
   441     0008                     	;# 
   442     0009                     	;# 
   443     000A                     	;# 
   444     000B                     	;# 
   445     000C                     	;# 
   446     000D                     	;# 
   447     0011                     	;# 
   448     0012                     	;# 
   449     0015                     	;# 
   450     0016                     	;# 
   451     0016                     	;# 
   452     0017                     	;# 
   453     0018                     	;# 
   454     0019                     	;# 
   455     001A                     	;# 
   456     001B                     	;# 
   457     001C                     	;# 
   458     001E                     	;# 
   459     001F                     	;# 
   460     008C                     	;# 
   461     008D                     	;# 
   462     0091                     	;# 
   463     0092                     	;# 
   464     0095                     	;# 
   465     0096                     	;# 
   466     0097                     	;# 
   467     0098                     	;# 
   468     0099                     	;# 
   469     009A                     	;# 
   470     009B                     	;# 
   471     009B                     	;# 
   472     009C                     	;# 
   473     009D                     	;# 
   474     009E                     	;# 
   475     010C                     	;# 
   476     010D                     	;# 
   477     0111                     	;# 
   478     0112                     	;# 
   479     0113                     	;# 
   480     0114                     	;# 
   481     0115                     	;# 
   482     0116                     	;# 
   483     0117                     	;# 
   484     0118                     	;# 
   485     0119                     	;# 
   486     011A                     	;# 
   487     011B                     	;# 
   488     011D                     	;# 
   489     011E                     	;# 
   490     018C                     	;# 
   491     018D                     	;# 
   492     0191                     	;# 
   493     0191                     	;# 
   494     0192                     	;# 
   495     0193                     	;# 
   496     0193                     	;# 
   497     0193                     	;# 
   498     0194                     	;# 
   499     0195                     	;# 
   500     0196                     	;# 
   501     0199                     	;# 
   502     019A                     	;# 
   503     019B                     	;# 
   504     019B                     	;# 
   505     019B                     	;# 
   506     019B                     	;# 
   507     019C                     	;# 
   508     019C                     	;# 
   509     019D                     	;# 
   510     019E                     	;# 
   511     019F                     	;# 
   512     020C                     	;# 
   513     020D                     	;# 
   514     0211                     	;# 
   515     0211                     	;# 
   516     0212                     	;# 
   517     0212                     	;# 
   518     0213                     	;# 
   519     0213                     	;# 
   520     0214                     	;# 
   521     0214                     	;# 
   522     0215                     	;# 
   523     0215                     	;# 
   524     0215                     	;# 
   525     0216                     	;# 
   526     0216                     	;# 
   527     0217                     	;# 
   528     0217                     	;# 
   529     0291                     	;# 
   530     0291                     	;# 
   531     0292                     	;# 
   532     0293                     	;# 
   533     0294                     	;# 
   534     0295                     	;# 
   535     0295                     	;# 
   536     0296                     	;# 
   537     0394                     	;# 
   538     0395                     	;# 
   539     0396                     	;# 
   540     039A                     	;# 
   541     039C                     	;# 
   542     039D                     	;# 
   543     039E                     	;# 
   544     039F                     	;# 
   545     0FE4                     	;# 
   546     0FE5                     	;# 
   547     0FE6                     	;# 
   548     0FE7                     	;# 
   549     0FE8                     	;# 
   550     0FE9                     	;# 
   551     0FEA                     	;# 
   552     0FEB                     	;# 
   553     0FED                     	;# 
   554     0FEE                     	;# 
   555     0FEF                     	;# 
   556     0000                     	;# 
   557     0001                     	;# 
   558     0002                     	;# 
   559     0003                     	;# 
   560     0004                     	;# 
   561     0005                     	;# 
   562     0006                     	;# 
   563     0007                     	;# 
   564     0008                     	;# 
   565     0009                     	;# 
   566     000A                     	;# 
   567     000B                     	;# 
   568     000C                     	;# 
   569     000D                     	;# 
   570     0011                     	;# 
   571     0012                     	;# 
   572     0015                     	;# 
   573     0016                     	;# 
   574     0016                     	;# 
   575     0017                     	;# 
   576     0018                     	;# 
   577     0019                     	;# 
   578     001A                     	;# 
   579     001B                     	;# 
   580     001C                     	;# 
   581     001E                     	;# 
   582     001F                     	;# 
   583     008C                     	;# 
   584     008D                     	;# 
   585     0091                     	;# 
   586     0092                     	;# 
   587     0095                     	;# 
   588     0096                     	;# 
   589     0097                     	;# 
   590     0098                     	;# 
   591     0099                     	;# 
   592     009A                     	;# 
   593     009B                     	;# 
   594     009B                     	;# 
   595     009C                     	;# 
   596     009D                     	;# 
   597     009E                     	;# 
   598     010C                     	;# 
   599     010D                     	;# 
   600     0111                     	;# 
   601     0112                     	;# 
   602     0113                     	;# 
   603     0114                     	;# 
   604     0115                     	;# 
   605     0116                     	;# 
   606     0117                     	;# 
   607     0118                     	;# 
   608     0119                     	;# 
   609     011A                     	;# 
   610     011B                     	;# 
   611     011D                     	;# 
   612     011E                     	;# 
   613     018C                     	;# 
   614     018D                     	;# 
   615     0191                     	;# 
   616     0191                     	;# 
   617     0192                     	;# 
   618     0193                     	;# 
   619     0193                     	;# 
   620     0193                     	;# 
   621     0194                     	;# 
   622     0195                     	;# 
   623     0196                     	;# 
   624     0199                     	;# 
   625     019A                     	;# 
   626     019B                     	;# 
   627     019B                     	;# 
   628     019B                     	;# 
   629     019B                     	;# 
   630     019C                     	;# 
   631     019C                     	;# 
   632     019D                     	;# 
   633     019E                     	;# 
   634     019F                     	;# 
   635     020C                     	;# 
   636     020D                     	;# 
   637     0211                     	;# 
   638     0211                     	;# 
   639     0212                     	;# 
   640     0212                     	;# 
   641     0213                     	;# 
   642     0213                     	;# 
   643     0214                     	;# 
   644     0214                     	;# 
   645     0215                     	;# 
   646     0215                     	;# 
   647     0215                     	;# 
   648     0216                     	;# 
   649     0216                     	;# 
   650     0217                     	;# 
   651     0217                     	;# 
   652     0291                     	;# 
   653     0291                     	;# 
   654     0292                     	;# 
   655     0293                     	;# 
   656     0294                     	;# 
   657     0295                     	;# 
   658     0295                     	;# 
   659     0296                     	;# 
   660     0394                     	;# 
   661     0395                     	;# 
   662     0396                     	;# 
   663     039A                     	;# 
   664     039C                     	;# 
   665     039D                     	;# 
   666     039E                     	;# 
   667     039F                     	;# 
   668     0FE4                     	;# 
   669     0FE5                     	;# 
   670     0FE6                     	;# 
   671     0FE7                     	;# 
   672     0FE8                     	;# 
   673     0FE9                     	;# 
   674     0FEA                     	;# 
   675     0FEB                     	;# 
   676     0FED                     	;# 
   677     0FEE                     	;# 
   678     0FEF                     	;# 
   679     0000                     	;# 
   680     0001                     	;# 
   681     0002                     	;# 
   682     0003                     	;# 
   683     0004                     	;# 
   684     0005                     	;# 
   685     0006                     	;# 
   686     0007                     	;# 
   687     0008                     	;# 
   688     0009                     	;# 
   689     000A                     	;# 
   690     000B                     	;# 
   691     000C                     	;# 
   692     000D                     	;# 
   693     0011                     	;# 
   694     0012                     	;# 
   695     0015                     	;# 
   696     0016                     	;# 
   697     0016                     	;# 
   698     0017                     	;# 
   699     0018                     	;# 
   700     0019                     	;# 
   701     001A                     	;# 
   702     001B                     	;# 
   703     001C                     	;# 
   704     001E                     	;# 
   705     001F                     	;# 
   706     008C                     	;# 
   707     008D                     	;# 
   708     0091                     	;# 
   709     0092                     	;# 
   710     0095                     	;# 
   711     0096                     	;# 
   712     0097                     	;# 
   713     0098                     	;# 
   714     0099                     	;# 
   715     009A                     	;# 
   716     009B                     	;# 
   717     009B                     	;# 
   718     009C                     	;# 
   719     009D                     	;# 
   720     009E                     	;# 
   721     010C                     	;# 
   722     010D                     	;# 
   723     0111                     	;# 
   724     0112                     	;# 
   725     0113                     	;# 
   726     0114                     	;# 
   727     0115                     	;# 
   728     0116                     	;# 
   729     0117                     	;# 
   730     0118                     	;# 
   731     0119                     	;# 
   732     011A                     	;# 
   733     011B                     	;# 
   734     011D                     	;# 
   735     011E                     	;# 
   736     018C                     	;# 
   737     018D                     	;# 
   738     0191                     	;# 
   739     0191                     	;# 
   740     0192                     	;# 
   741     0193                     	;# 
   742     0193                     	;# 
   743     0193                     	;# 
   744     0194                     	;# 
   745     0195                     	;# 
   746     0196                     	;# 
   747     0199                     	;# 
   748     019A                     	;# 
   749     019B                     	;# 
   750     019B                     	;# 
   751     019B                     	;# 
   752     019B                     	;# 
   753     019C                     	;# 
   754     019C                     	;# 
   755     019D                     	;# 
   756     019E                     	;# 
   757     019F                     	;# 
   758     020C                     	;# 
   759     020D                     	;# 
   760     0211                     	;# 
   761     0211                     	;# 
   762     0212                     	;# 
   763     0212                     	;# 
   764     0213                     	;# 
   765     0213                     	;# 
   766     0214                     	;# 
   767     0214                     	;# 
   768     0215                     	;# 
   769     0215                     	;# 
   770     0215                     	;# 
   771     0216                     	;# 
   772     0216                     	;# 
   773     0217                     	;# 
   774     0217                     	;# 
   775     0291                     	;# 
   776     0291                     	;# 
   777     0292                     	;# 
   778     0293                     	;# 
   779     0294                     	;# 
   780     0295                     	;# 
   781     0295                     	;# 
   782     0296                     	;# 
   783     0394                     	;# 
   784     0395                     	;# 
   785     0396                     	;# 
   786     039A                     	;# 
   787     039C                     	;# 
   788     039D                     	;# 
   789     039E                     	;# 
   790     039F                     	;# 
   791     0FE4                     	;# 
   792     0FE5                     	;# 
   793     0FE6                     	;# 
   794     0FE7                     	;# 
   795     0FE8                     	;# 
   796     0FE9                     	;# 
   797     0FEA                     	;# 
   798     0FEB                     	;# 
   799     0FED                     	;# 
   800     0FEE                     	;# 
   801     0FEF                     	;# 
   802     0000                     	;# 
   803     0001                     	;# 
   804     0002                     	;# 
   805     0003                     	;# 
   806     0004                     	;# 
   807     0005                     	;# 
   808     0006                     	;# 
   809     0007                     	;# 
   810     0008                     	;# 
   811     0009                     	;# 
   812     000A                     	;# 
   813     000B                     	;# 
   814     000C                     	;# 
   815     000D                     	;# 
   816     0011                     	;# 
   817     0012                     	;# 
   818     0015                     	;# 
   819     0016                     	;# 
   820     0016                     	;# 
   821     0017                     	;# 
   822     0018                     	;# 
   823     0019                     	;# 
   824     001A                     	;# 
   825     001B                     	;# 
   826     001C                     	;# 
   827     001E                     	;# 
   828     001F                     	;# 
   829     008C                     	;# 
   830     008D                     	;# 
   831     0091                     	;# 
   832     0092                     	;# 
   833     0095                     	;# 
   834     0096                     	;# 
   835     0097                     	;# 
   836     0098                     	;# 
   837     0099                     	;# 
   838     009A                     	;# 
   839     009B                     	;# 
   840     009B                     	;# 
   841     009C                     	;# 
   842     009D                     	;# 
   843     009E                     	;# 
   844     010C                     	;# 
   845     010D                     	;# 
   846     0111                     	;# 
   847     0112                     	;# 
   848     0113                     	;# 
   849     0114                     	;# 
   850     0115                     	;# 
   851     0116                     	;# 
   852     0117                     	;# 
   853     0118                     	;# 
   854     0119                     	;# 
   855     011A                     	;# 
   856     011B                     	;# 
   857     011D                     	;# 
   858     011E                     	;# 
   859     018C                     	;# 
   860     018D                     	;# 
   861     0191                     	;# 
   862     0191                     	;# 
   863     0192                     	;# 
   864     0193                     	;# 
   865     0193                     	;# 
   866     0193                     	;# 
   867     0194                     	;# 
   868     0195                     	;# 
   869     0196                     	;# 
   870     0199                     	;# 
   871     019A                     	;# 
   872     019B                     	;# 
   873     019B                     	;# 
   874     019B                     	;# 
   875     019B                     	;# 
   876     019C                     	;# 
   877     019C                     	;# 
   878     019D                     	;# 
   879     019E                     	;# 
   880     019F                     	;# 
   881     020C                     	;# 
   882     020D                     	;# 
   883     0211                     	;# 
   884     0211                     	;# 
   885     0212                     	;# 
   886     0212                     	;# 
   887     0213                     	;# 
   888     0213                     	;# 
   889     0214                     	;# 
   890     0214                     	;# 
   891     0215                     	;# 
   892     0215                     	;# 
   893     0215                     	;# 
   894     0216                     	;# 
   895     0216                     	;# 
   896     0217                     	;# 
   897     0217                     	;# 
   898     0291                     	;# 
   899     0291                     	;# 
   900     0292                     	;# 
   901     0293                     	;# 
   902     0294                     	;# 
   903     0295                     	;# 
   904     0295                     	;# 
   905     0296                     	;# 
   906     0394                     	;# 
   907     0395                     	;# 
   908     0396                     	;# 
   909     039A                     	;# 
   910     039C                     	;# 
   911     039D                     	;# 
   912     039E                     	;# 
   913     039F                     	;# 
   914     0FE4                     	;# 
   915     0FE5                     	;# 
   916     0FE6                     	;# 
   917     0FE7                     	;# 
   918     0FE8                     	;# 
   919     0FE9                     	;# 
   920     0FEA                     	;# 
   921     0FEB                     	;# 
   922     0FED                     	;# 
   923     0FEE                     	;# 
   924     0FEF                     	;# 
   925                           
   926 ;; Function _EUSART_DefaultFramingErrorHandler is unused but had its address taken
   927     0000                     
   928 ;; Function _EUSART_DefaultOverrunErrorHandler is unused but had its address taken
   929     0000                     
   930 ;; Function _EUSART_DefaultErrorHandler is unused but had its address taken
   931     0000                     
   932                           	psect	idataBANK0
   933     005E                     __pidataBANK0:
   934                           
   935                           ;initializer for _NumberBlocks
   936     005E  341E               	retlw	30
   937     005F  3421               	retlw	33
   938     0060  3404               	retlw	4
   939     0061  340C               	retlw	12
   940     0062  3414               	retlw	20
   941     0063  343F               	retlw	63
   942     0064  3402               	retlw	2
   943     0065  3420               	retlw	32
   944     0066  340E               	retlw	14
   945     0067  3401               	retlw	1
   946     0068  3406               	retlw	6
   947     0069  340A               	retlw	10
   948     006A  3412               	retlw	18
   949     006B  3422               	retlw	34
   950     006C  343E               	retlw	62
   951     006D  342E               	retlw	46
   952     006E  3430               	retlw	48
   953     006F  3408               	retlw	8
   954     0070  3410               	retlw	16
   955     0071  3423               	retlw	35
   956     0072  341D               	retlw	29
   957                           
   958                           	psect	nvCOMMON
   959     007A                     __pnvCOMMON:
   960     007A                     _TMR0_InterruptHandler:
   961     007A                     	ds	2
   962                           
   963                           	psect	nvBANK0
   964     003D                     __pnvBANK0:
   965     003D                     _EUSART_ErrorHandler:
   966     003D                     	ds	2
   967     003F                     _EUSART_OverrunErrorHandler:
   968     003F                     	ds	2
   969     0041                     _EUSART_FramingErrorHandler:
   970     0041                     	ds	2
   971     0015                     _TMR0	set	21
   972     000B                     _INTCONbits	set	11
   973     0095                     _OPTION_REG	set	149
   974     0097                     _WDTCON	set	151
   975     0098                     _OSCTUNE	set	152
   976     0099                     _OSCCON	set	153
   977     0095                     _OPTION_REGbits	set	149
   978     008D                     _TRISB	set	141
   979     008C                     _TRISA	set	140
   980     0116                     _BORCON	set	278
   981     011E                     _APFCON1	set	286
   982     011D                     _APFCON0	set	285
   983     010D                     _LATB	set	269
   984     010C                     _LATA	set	268
   985     019C                     _SPBRGH	set	412
   986     019B                     _SPBRGL	set	411
   987     019E                     _TXSTA	set	414
   988     019D                     _RCSTA	set	413
   989     019F                     _BAUDCON	set	415
   990     018C                     _ANSELA	set	396
   991     018D                     _ANSELB	set	397
   992     020C                     _WPUA	set	524
   993     020D                     _WPUB	set	525
   994                           
   995                           	psect	cinit
   996     000D                     start_initialization:	
   997                           ; #config settings
   998                           
   999     000D                     __initialization:
  1000                           
  1001                           ; Initialize objects allocated to BANK0
  1002     000D  305E               	movlw	low __pidataBANK0
  1003     000E  0084               	movwf	4
  1004     000F  3080               	movlw	(high __pidataBANK0)| (0+128)
  1005     0010  0085               	movwf	5
  1006     0011  3020               	movlw	low __pdataBANK0
  1007     0012  0086               	movwf	6
  1008     0013  3000               	movlw	high __pdataBANK0
  1009     0014  0087               	movwf	7
  1010     0015  3015               	movlw	21
  1011     0016  2099               	fcall	init_ram
  1012                           
  1013                           ; Clear objects allocated to COMMON
  1014     0017  01F0               	clrf	__pbssCOMMON& (0+127)
  1015     0018  01F1               	clrf	(__pbssCOMMON+1)& (0+127)
  1016     0019  01F2               	clrf	(__pbssCOMMON+2)& (0+127)
  1017     001A  01F3               	clrf	(__pbssCOMMON+3)& (0+127)
  1018     001B  01F4               	clrf	(__pbssCOMMON+4)& (0+127)
  1019     001C  01F5               	clrf	(__pbssCOMMON+5)& (0+127)
  1020     001D  01F6               	clrf	(__pbssCOMMON+6)& (0+127)
  1021     001E  01F7               	clrf	(__pbssCOMMON+7)& (0+127)
  1022     001F  01F8               	clrf	(__pbssCOMMON+8)& (0+127)
  1023     0020  01F9               	clrf	(__pbssCOMMON+9)& (0+127)
  1024                           
  1025                           ; Clear objects allocated to BANK0
  1026     0021  01B5               	clrf	__pbssBANK0& (0+127)
  1027     0022  01B6               	clrf	(__pbssBANK0+1)& (0+127)
  1028     0023  01B7               	clrf	(__pbssBANK0+2)& (0+127)
  1029     0024  01B8               	clrf	(__pbssBANK0+3)& (0+127)
  1030     0025  01B9               	clrf	(__pbssBANK0+4)& (0+127)
  1031     0026  01BA               	clrf	(__pbssBANK0+5)& (0+127)
  1032     0027  01BB               	clrf	(__pbssBANK0+6)& (0+127)
  1033     0028  01BC               	clrf	(__pbssBANK0+7)& (0+127)
  1034     0029                     end_of_initialization:	
  1035                           ;End of C runtime variable initialization code
  1036                           
  1037     0029                     __end_of__initialization:
  1038     0029  107E               	bcf	int$flags,0	;clear compiler interrupt flag (level 1)
  1039     002A  0020               	movlb	0
  1040     002B  28BE               	ljmp	_main	;jump to C main() function
  1041                           
  1042                           	psect	bssCOMMON
  1043     0070                     __pbssCOMMON:
  1044     0070                     _time_of_day:
  1045     0070                     	ds	2
  1046     0072                     _eusartRxLastError:
  1047     0072                     	ds	1
  1048     0073                     _timer0ReloadVal:
  1049     0073                     	ds	1
  1050     0074                     _character_line:
  1051     0074                     	ds	1
  1052     0075                     _char_line:
  1053     0075                     	ds	1
  1054     0076                     _display_num:
  1055     0076                     	ds	1
  1056     0077                     _TimeSlot:
  1057     0077                     	ds	1
  1058     0078                     _AccessLine:
  1059     0078                     	ds	1
  1060     0079                     Time_deconstruct@character_line:
  1061     0079                     	ds	1
  1062                           
  1063                           	psect	bssBANK0
  1064     0035                     __pbssBANK0:
  1065     0035                     _renderer_outputs:
  1066     0035                     	ds	4
  1067     0039                     _tod_outputs:
  1068     0039                     	ds	4
  1069                           
  1070                           	psect	dataBANK0
  1071     0020                     __pdataBANK0:
  1072     0020                     _NumberBlocks:
  1073     0020                     	ds	21
  1074                           
  1075                           	psect	inittext
  1076     0099                     init_ram:
  1077     0099  00FE               	movwf	126
  1078     009A                     initloop:
  1079     009A  0012               	moviw fsr0++
  1080     009B  001E               	movwi fsr1++
  1081     009C  0BFE               	decfsz	126,f
  1082     009D  289A               	goto	initloop
  1083     009E  3400               	retlw	0
  1084                           
  1085                           	psect	cstackCOMMON
  1086     007C                     __pcstackCOMMON:
  1087     007C                     ?_OSCILLATOR_Initialize:
  1088     007C                     ??_OSCILLATOR_Initialize:	
  1089                           ; 1 bytes @ 0x0
  1090                           
  1091     007C                     ?_WDT_Initialize:	
  1092                           ; 1 bytes @ 0x0
  1093                           
  1094     007C                     ??_WDT_Initialize:	
  1095                           ; 1 bytes @ 0x0
  1096                           
  1097     007C                     ?_TMR0_Initialize:	
  1098                           ; 1 bytes @ 0x0
  1099                           
  1100     007C                     ?_EUSART_Initialize:	
  1101                           ; 1 bytes @ 0x0
  1102                           
  1103     007C                     ?_TMR0_ISR:	
  1104                           ; 1 bytes @ 0x0
  1105                           
  1106     007C                     ??_TMR0_ISR:	
  1107                           ; 1 bytes @ 0x0
  1108                           
  1109     007C                     ?_TMR0_SetInterruptHandler:	
  1110                           ; 1 bytes @ 0x0
  1111                           
  1112     007C                     ?_TMR0_DefaultInterruptHandler:	
  1113                           ; 1 bytes @ 0x0
  1114                           
  1115     007C                     ??_TMR0_DefaultInterruptHandler:	
  1116                           ; 1 bytes @ 0x0
  1117                           
  1118     007C                     ?_EUSART_SetFramingErrorHandler:	
  1119                           ; 1 bytes @ 0x0
  1120                           
  1121     007C                     ?_EUSART_SetOverrunErrorHandler:	
  1122                           ; 1 bytes @ 0x0
  1123                           
  1124     007C                     ?_EUSART_SetErrorHandler:	
  1125                           ; 1 bytes @ 0x0
  1126                           
  1127     007C                     ?_PIN_MANAGER_Initialize:	
  1128                           ; 1 bytes @ 0x0
  1129                           
  1130     007C                     ??_PIN_MANAGER_Initialize:	
  1131                           ; 1 bytes @ 0x0
  1132                           
  1133     007C                     ?_SYSTEM_Initialize:	
  1134                           ; 1 bytes @ 0x0
  1135                           
  1136     007C                     ?_main:	
  1137                           ; 1 bytes @ 0x0
  1138                           
  1139     007C                     ?_INTERRUPT_InterruptManager:	
  1140                           ; 1 bytes @ 0x0
  1141                           
  1142     007C                     ??_INTERRUPT_InterruptManager:	
  1143                           ; 1 bytes @ 0x0
  1144                           
  1145     007C                     TMR0_SetInterruptHandler@InterruptHandler:	
  1146                           ; 1 bytes @ 0x0
  1147                           
  1148     007C                     EUSART_SetFramingErrorHandler@interruptHandler:	
  1149                           ; 2 bytes @ 0x0
  1150                           
  1151     007C                     EUSART_SetOverrunErrorHandler@interruptHandler:	
  1152                           ; 2 bytes @ 0x0
  1153                           
  1154     007C                     EUSART_SetErrorHandler@interruptHandler:	
  1155                           ; 2 bytes @ 0x0
  1156                           
  1157                           
  1158                           ; 2 bytes @ 0x0
  1159     007C                     	ds	2
  1160     007E                     ??_TMR0_Initialize:
  1161     007E                     ??_EUSART_Initialize:	
  1162                           ; 1 bytes @ 0x2
  1163                           
  1164     007E                     ??_TMR0_SetInterruptHandler:	
  1165                           ; 1 bytes @ 0x2
  1166                           
  1167     007E                     ??_EUSART_SetFramingErrorHandler:	
  1168                           ; 1 bytes @ 0x2
  1169                           
  1170     007E                     ??_EUSART_SetOverrunErrorHandler:	
  1171                           ; 1 bytes @ 0x2
  1172                           
  1173     007E                     ??_EUSART_SetErrorHandler:	
  1174                           ; 1 bytes @ 0x2
  1175                           
  1176     007E                     ??_SYSTEM_Initialize:	
  1177                           ; 1 bytes @ 0x2
  1178                           
  1179     007E                     ??_main:	
  1180                           ; 1 bytes @ 0x2
  1181                           
  1182                           
  1183                           	psect	maintext
  1184     00BE                     __pmaintext:	
  1185                           ; 1 bytes @ 0x2
  1186 ;;
  1187 ;;Main: autosize = 0, tempsize = 0, incstack = 0, save=0
  1188 ;;
  1189 ;; *************** function _main *****************
  1190 ;; Defined at:
  1191 ;;		line 63 in file "PerfBoardClock.c"
  1192 ;; Parameters:    Size  Location     Type
  1193 ;;		None
  1194 ;; Auto vars:     Size  Location     Type
  1195 ;;  Minutes         1    0        unsigned char 
  1196 ;;  Hours           1    0        unsigned char 
  1197 ;;  AccessLine      1    0        unsigned char 
  1198 ;; Return value:  Size  Location     Type
  1199 ;;                  1    wreg      void 
  1200 ;; Registers used:
  1201 ;;		wreg, status,2, status,0, pclath, cstack
  1202 ;; Tracked objects:
  1203 ;;		On entry : B1F/0
  1204 ;;		On exit  : 1F/0
  1205 ;;		Unchanged: 0/0
  1206 ;; Data sizes:     COMMON   BANK0   BANK1   BANK2
  1207 ;;      Params:         0       0       0       0
  1208 ;;      Locals:         0       0       0       0
  1209 ;;      Temps:          0       0       0       0
  1210 ;;      Totals:         0       0       0       0
  1211 ;;Total ram usage:        0 bytes
  1212 ;; Hardware stack levels required when called: 6
  1213 ;; This function calls:
  1214 ;;		_SYSTEM_Initialize
  1215 ;; This function is called by:
  1216 ;;		Startup code after reset
  1217 ;; This function uses a non-reentrant model
  1218 ;;
  1219                           
  1220     00BE                     _main:	
  1221                           ;psect for function _main
  1222                           
  1223                           
  1224                           ;PerfBoardClock.c: 65:     SYSTEM_Initialize();
  1225                           
  1226                           ;incstack = 0
  1227                           ; Regs used in _main: [wreg+status,2+status,0+pclath+cstack]
  1228     00BE  209F               	fcall	_SYSTEM_Initialize
  1229     00BF                     l100:	
  1230                           ;PerfBoardClock.c: 90:     while (1) {
  1231                           
  1232                           
  1233                           ;PerfBoardClock.c: 94:     }
  1234     00BF  28BF               	goto	l100
  1235     00C0                     __end_of_main:
  1236                           
  1237                           	psect	text1
  1238     009F                     __ptext1:	
  1239 ;; *************** function _SYSTEM_Initialize *****************
  1240 ;; Defined at:
  1241 ;;		line 50 in file "mcc_generated_files/mcc.c"
  1242 ;; Parameters:    Size  Location     Type
  1243 ;;		None
  1244 ;; Auto vars:     Size  Location     Type
  1245 ;;		None
  1246 ;; Return value:  Size  Location     Type
  1247 ;;                  1    wreg      void 
  1248 ;; Registers used:
  1249 ;;		wreg, status,2, status,0, pclath, cstack
  1250 ;; Tracked objects:
  1251 ;;		On entry : B1F/0
  1252 ;;		On exit  : 1F/0
  1253 ;;		Unchanged: 0/0
  1254 ;; Data sizes:     COMMON   BANK0   BANK1   BANK2
  1255 ;;      Params:         0       0       0       0
  1256 ;;      Locals:         0       0       0       0
  1257 ;;      Temps:          0       0       0       0
  1258 ;;      Totals:         0       0       0       0
  1259 ;;Total ram usage:        0 bytes
  1260 ;; Hardware stack levels used: 1
  1261 ;; Hardware stack levels required when called: 5
  1262 ;; This function calls:
  1263 ;;		_EUSART_Initialize
  1264 ;;		_OSCILLATOR_Initialize
  1265 ;;		_PIN_MANAGER_Initialize
  1266 ;;		_TMR0_Initialize
  1267 ;;		_WDT_Initialize
  1268 ;; This function is called by:
  1269 ;;		_main
  1270 ;; This function uses a non-reentrant model
  1271 ;;
  1272                           
  1273     009F                     _SYSTEM_Initialize:	
  1274                           ;psect for function _SYSTEM_Initialize
  1275                           
  1276                           
  1277                           ;mcc_generated_files/mcc.c: 53:     PIN_MANAGER_Initialize();
  1278                           
  1279                           ;incstack = 0
  1280                           ; Regs used in _SYSTEM_Initialize: [wreg+status,2+status,0+pclath+cstack]
  1281     009F  2047               	fcall	_PIN_MANAGER_Initialize
  1282                           
  1283                           ;mcc_generated_files/mcc.c: 54:     OSCILLATOR_Initialize();
  1284     00A0  2092               	fcall	_OSCILLATOR_Initialize
  1285                           
  1286                           ;mcc_generated_files/mcc.c: 55:     WDT_Initialize();
  1287     00A1  20BA               	fcall	_WDT_Initialize
  1288                           
  1289                           ;mcc_generated_files/mcc.c: 56:     TMR0_Initialize();
  1290     00A2  2073               	fcall	_TMR0_Initialize
  1291                           
  1292                           ;mcc_generated_files/mcc.c: 57:     EUSART_Initialize();
  1293     00A3  202C               	fcall	_EUSART_Initialize
  1294     00A4  0008               	return
  1295     00A5                     __end_of_SYSTEM_Initialize:
  1296                           
  1297                           	psect	text2
  1298     00BA                     __ptext2:	
  1299 ;; *************** function _WDT_Initialize *****************
  1300 ;; Defined at:
  1301 ;;		line 70 in file "mcc_generated_files/mcc.c"
  1302 ;; Parameters:    Size  Location     Type
  1303 ;;		None
  1304 ;; Auto vars:     Size  Location     Type
  1305 ;;		None
  1306 ;; Return value:  Size  Location     Type
  1307 ;;                  1    wreg      void 
  1308 ;; Registers used:
  1309 ;;		wreg
  1310 ;; Tracked objects:
  1311 ;;		On entry : B1F/2
  1312 ;;		On exit  : B1F/1
  1313 ;;		Unchanged: B00/0
  1314 ;; Data sizes:     COMMON   BANK0   BANK1   BANK2
  1315 ;;      Params:         0       0       0       0
  1316 ;;      Locals:         0       0       0       0
  1317 ;;      Temps:          0       0       0       0
  1318 ;;      Totals:         0       0       0       0
  1319 ;;Total ram usage:        0 bytes
  1320 ;; Hardware stack levels used: 1
  1321 ;; Hardware stack levels required when called: 3
  1322 ;; This function calls:
  1323 ;;		Nothing
  1324 ;; This function is called by:
  1325 ;;		_SYSTEM_Initialize
  1326 ;; This function uses a non-reentrant model
  1327 ;;
  1328                           
  1329     00BA                     _WDT_Initialize:	
  1330                           ;psect for function _WDT_Initialize
  1331                           
  1332                           
  1333                           ;mcc_generated_files/mcc.c: 73:     WDTCON = 0x16;
  1334                           
  1335                           ;incstack = 0
  1336                           ; Regs used in _WDT_Initialize: [wreg]
  1337     00BA  3016               	movlw	22
  1338     00BB  0021               	movlb	1	; select bank1
  1339     00BC  0097               	movwf	23	;volatile
  1340     00BD  0008               	return
  1341     00BE                     __end_of_WDT_Initialize:
  1342                           
  1343                           	psect	text3
  1344     0073                     __ptext3:	
  1345 ;; *************** function _TMR0_Initialize *****************
  1346 ;; Defined at:
  1347 ;;		line 64 in file "mcc_generated_files/tmr0.c"
  1348 ;; Parameters:    Size  Location     Type
  1349 ;;		None
  1350 ;; Auto vars:     Size  Location     Type
  1351 ;;		None
  1352 ;; Return value:  Size  Location     Type
  1353 ;;                  1    wreg      void 
  1354 ;; Registers used:
  1355 ;;		wreg, status,2, status,0, pclath, cstack
  1356 ;; Tracked objects:
  1357 ;;		On entry : B1F/1
  1358 ;;		On exit  : B1F/0
  1359 ;;		Unchanged: B00/0
  1360 ;; Data sizes:     COMMON   BANK0   BANK1   BANK2
  1361 ;;      Params:         0       0       0       0
  1362 ;;      Locals:         0       0       0       0
  1363 ;;      Temps:          0       0       0       0
  1364 ;;      Totals:         0       0       0       0
  1365 ;;Total ram usage:        0 bytes
  1366 ;; Hardware stack levels used: 1
  1367 ;; Hardware stack levels required when called: 4
  1368 ;; This function calls:
  1369 ;;		_TMR0_SetInterruptHandler
  1370 ;; This function is called by:
  1371 ;;		_SYSTEM_Initialize
  1372 ;; This function uses a non-reentrant model
  1373 ;;
  1374                           
  1375     0073                     _TMR0_Initialize:	
  1376                           ;psect for function _TMR0_Initialize
  1377                           
  1378                           
  1379                           ;mcc_generated_files/tmr0.c: 69:     OPTION_REG = (uint8_t)((OPTION_REG & 0xC0) | (0xFF 
      +                          & 0x3F));
  1380                           
  1381                           ;incstack = 0
  1382                           ; Regs used in _TMR0_Initialize: [wreg+status,2+status,0+pclath+cstack]
  1383     0073  0815               	movf	21,w	;volatile
  1384     0074  39C0               	andlw	192
  1385     0075  383F               	iorlw	63
  1386     0076  0095               	movwf	21	;volatile
  1387                           
  1388                           ;mcc_generated_files/tmr0.c: 72:     TMR0 = 0xBF;
  1389     0077  30BF               	movlw	191
  1390     0078  0020               	movlb	0	; select bank0
  1391     0079  0095               	movwf	21	;volatile
  1392                           
  1393                           ;mcc_generated_files/tmr0.c: 75:     timer0ReloadVal= 191;
  1394     007A  30BF               	movlw	191
  1395     007B  00F3               	movwf	_timer0ReloadVal	;volatile
  1396                           
  1397                           ;mcc_generated_files/tmr0.c: 78:     INTCONbits.TMR0IF = 0;
  1398     007C  110B               	bcf	11,2	;volatile
  1399                           
  1400                           ;mcc_generated_files/tmr0.c: 81:     INTCONbits.TMR0IE = 1;
  1401     007D  168B               	bsf	11,5	;volatile
  1402                           
  1403                           ;mcc_generated_files/tmr0.c: 84:     TMR0_SetInterruptHandler(TMR0_DefaultInterruptHandl
      +                          er);
  1404     007E  30C0               	movlw	low _TMR0_DefaultInterruptHandler
  1405     007F  00FC               	movwf	TMR0_SetInterruptHandler@InterruptHandler
  1406     0080  3000               	movlw	high _TMR0_DefaultInterruptHandler
  1407     0081  00FD               	movwf	TMR0_SetInterruptHandler@InterruptHandler+1
  1408     0082  20AB               	fcall	_TMR0_SetInterruptHandler
  1409     0083  0008               	return
  1410     0084                     __end_of_TMR0_Initialize:
  1411                           
  1412                           	psect	text4
  1413     00AB                     __ptext4:	
  1414 ;; *************** function _TMR0_SetInterruptHandler *****************
  1415 ;; Defined at:
  1416 ;;		line 125 in file "mcc_generated_files/tmr0.c"
  1417 ;; Parameters:    Size  Location     Type
  1418 ;;  InterruptHan    2    0[COMMON] PTR FTN()void 
  1419 ;;		 -> TMR0_DefaultInterruptHandler(1), 
  1420 ;; Auto vars:     Size  Location     Type
  1421 ;;		None
  1422 ;; Return value:  Size  Location     Type
  1423 ;;                  1    wreg      void 
  1424 ;; Registers used:
  1425 ;;		wreg
  1426 ;; Tracked objects:
  1427 ;;		On entry : B1F/0
  1428 ;;		On exit  : B1F/0
  1429 ;;		Unchanged: B1F/0
  1430 ;; Data sizes:     COMMON   BANK0   BANK1   BANK2
  1431 ;;      Params:         2       0       0       0
  1432 ;;      Locals:         0       0       0       0
  1433 ;;      Temps:          0       0       0       0
  1434 ;;      Totals:         2       0       0       0
  1435 ;;Total ram usage:        2 bytes
  1436 ;; Hardware stack levels used: 1
  1437 ;; Hardware stack levels required when called: 3
  1438 ;; This function calls:
  1439 ;;		Nothing
  1440 ;; This function is called by:
  1441 ;;		_TMR0_Initialize
  1442 ;; This function uses a non-reentrant model
  1443 ;;
  1444                           
  1445     00AB                     _TMR0_SetInterruptHandler:	
  1446                           ;psect for function _TMR0_SetInterruptHandler
  1447                           
  1448                           
  1449                           ;mcc_generated_files/tmr0.c: 126:     TMR0_InterruptHandler = InterruptHandler;
  1450                           
  1451                           ;incstack = 0
  1452                           ; Regs used in _TMR0_SetInterruptHandler: [wreg]
  1453     00AB  087D               	movf	TMR0_SetInterruptHandler@InterruptHandler+1,w
  1454     00AC  00FB               	movwf	_TMR0_InterruptHandler+1
  1455     00AD  087C               	movf	TMR0_SetInterruptHandler@InterruptHandler,w
  1456     00AE  00FA               	movwf	_TMR0_InterruptHandler
  1457     00AF  0008               	return
  1458     00B0                     __end_of_TMR0_SetInterruptHandler:
  1459                           
  1460                           	psect	text5
  1461     0047                     __ptext5:	
  1462 ;; *************** function _PIN_MANAGER_Initialize *****************
  1463 ;; Defined at:
  1464 ;;		line 55 in file "mcc_generated_files/pin_manager.c"
  1465 ;; Parameters:    Size  Location     Type
  1466 ;;		None
  1467 ;; Auto vars:     Size  Location     Type
  1468 ;;		None
  1469 ;; Return value:  Size  Location     Type
  1470 ;;                  1    wreg      void 
  1471 ;; Registers used:
  1472 ;;		wreg, status,2
  1473 ;; Tracked objects:
  1474 ;;		On entry : B1F/0
  1475 ;;		On exit  : B1F/2
  1476 ;;		Unchanged: B00/0
  1477 ;; Data sizes:     COMMON   BANK0   BANK1   BANK2
  1478 ;;      Params:         0       0       0       0
  1479 ;;      Locals:         0       0       0       0
  1480 ;;      Temps:          0       0       0       0
  1481 ;;      Totals:         0       0       0       0
  1482 ;;Total ram usage:        0 bytes
  1483 ;; Hardware stack levels used: 1
  1484 ;; Hardware stack levels required when called: 3
  1485 ;; This function calls:
  1486 ;;		Nothing
  1487 ;; This function is called by:
  1488 ;;		_SYSTEM_Initialize
  1489 ;; This function uses a non-reentrant model
  1490 ;;
  1491                           
  1492     0047                     _PIN_MANAGER_Initialize:	
  1493                           ;psect for function _PIN_MANAGER_Initialize
  1494                           
  1495                           
  1496                           ;mcc_generated_files/pin_manager.c: 60:     LATA = 0x45;
  1497                           
  1498                           ;incstack = 0
  1499                           ; Regs used in _PIN_MANAGER_Initialize: [wreg+status,2]
  1500     0047  3045               	movlw	69
  1501     0048  0022               	movlb	2	; select bank2
  1502     0049  008C               	movwf	12	;volatile
  1503                           
  1504                           ;mcc_generated_files/pin_manager.c: 61:     LATB = 0x00;
  1505     004A  018D               	clrf	13	;volatile
  1506                           
  1507                           ;mcc_generated_files/pin_manager.c: 66:     TRISA = 0x3C;
  1508     004B  303C               	movlw	60
  1509     004C  0021               	movlb	1	; select bank1
  1510     004D  008C               	movwf	12	;volatile
  1511                           
  1512                           ;mcc_generated_files/pin_manager.c: 67:     TRISB = 0xFF;
  1513     004E  30FF               	movlw	255
  1514     004F  008D               	movwf	13	;volatile
  1515                           
  1516                           ;mcc_generated_files/pin_manager.c: 72:     ANSELB = 0xDC;
  1517     0050  30DC               	movlw	220
  1518     0051  0023               	movlb	3	; select bank3
  1519     0052  008D               	movwf	13	;volatile
  1520                           
  1521                           ;mcc_generated_files/pin_manager.c: 73:     ANSELA = 0x00;
  1522     0053  018C               	clrf	12	;volatile
  1523                           
  1524                           ;mcc_generated_files/pin_manager.c: 78:     WPUB = 0x00;
  1525     0054  0024               	movlb	4	; select bank4
  1526     0055  018D               	clrf	13	;volatile
  1527                           
  1528                           ;mcc_generated_files/pin_manager.c: 79:     WPUA = 0x00;
  1529     0056  018C               	clrf	12	;volatile
  1530                           
  1531                           ;mcc_generated_files/pin_manager.c: 80:     OPTION_REGbits.nWPUEN = 1;
  1532     0057  0021               	movlb	1	; select bank1
  1533     0058  1795               	bsf	21,7	;volatile
  1534                           
  1535                           ;mcc_generated_files/pin_manager.c: 86:     APFCON0 = 0x00;
  1536     0059  0022               	movlb	2	; select bank2
  1537     005A  019D               	clrf	29	;volatile
  1538                           
  1539                           ;mcc_generated_files/pin_manager.c: 87:     APFCON1 = 0x01;
  1540     005B  3001               	movlw	1
  1541     005C  009E               	movwf	30	;volatile
  1542     005D  0008               	return
  1543     005E                     __end_of_PIN_MANAGER_Initialize:
  1544                           
  1545                           	psect	text6
  1546     0092                     __ptext6:	
  1547 ;; *************** function _OSCILLATOR_Initialize *****************
  1548 ;; Defined at:
  1549 ;;		line 60 in file "mcc_generated_files/mcc.c"
  1550 ;; Parameters:    Size  Location     Type
  1551 ;;		None
  1552 ;; Auto vars:     Size  Location     Type
  1553 ;;		None
  1554 ;; Return value:  Size  Location     Type
  1555 ;;                  1    wreg      void 
  1556 ;; Registers used:
  1557 ;;		wreg, status,2
  1558 ;; Tracked objects:
  1559 ;;		On entry : B1F/2
  1560 ;;		On exit  : B1F/2
  1561 ;;		Unchanged: B00/0
  1562 ;; Data sizes:     COMMON   BANK0   BANK1   BANK2
  1563 ;;      Params:         0       0       0       0
  1564 ;;      Locals:         0       0       0       0
  1565 ;;      Temps:          0       0       0       0
  1566 ;;      Totals:         0       0       0       0
  1567 ;;Total ram usage:        0 bytes
  1568 ;; Hardware stack levels used: 1
  1569 ;; Hardware stack levels required when called: 3
  1570 ;; This function calls:
  1571 ;;		Nothing
  1572 ;; This function is called by:
  1573 ;;		_SYSTEM_Initialize
  1574 ;; This function uses a non-reentrant model
  1575 ;;
  1576                           
  1577     0092                     _OSCILLATOR_Initialize:	
  1578                           ;psect for function _OSCILLATOR_Initialize
  1579                           
  1580                           
  1581                           ;mcc_generated_files/mcc.c: 63:     OSCCON = 0x48;
  1582                           
  1583                           ;incstack = 0
  1584                           ; Regs used in _OSCILLATOR_Initialize: [wreg+status,2]
  1585     0092  3048               	movlw	72
  1586     0093  0021               	movlb	1	; select bank1
  1587     0094  0099               	movwf	25	;volatile
  1588                           
  1589                           ;mcc_generated_files/mcc.c: 65:     OSCTUNE = 0x00;
  1590     0095  0198               	clrf	24	;volatile
  1591                           
  1592                           ;mcc_generated_files/mcc.c: 67:     BORCON = 0x00;
  1593     0096  0022               	movlb	2	; select bank2
  1594     0097  0196               	clrf	22	;volatile
  1595     0098  0008               	return
  1596     0099                     __end_of_OSCILLATOR_Initialize:
  1597                           
  1598                           	psect	text7
  1599     002C                     __ptext7:	
  1600 ;; *************** function _EUSART_Initialize *****************
  1601 ;; Defined at:
  1602 ;;		line 65 in file "mcc_generated_files/eusart.c"
  1603 ;; Parameters:    Size  Location     Type
  1604 ;;		None
  1605 ;; Auto vars:     Size  Location     Type
  1606 ;;		None
  1607 ;; Return value:  Size  Location     Type
  1608 ;;                  1    wreg      void 
  1609 ;; Registers used:
  1610 ;;		wreg, status,2, status,0, pclath, cstack
  1611 ;; Tracked objects:
  1612 ;;		On entry : B1F/0
  1613 ;;		On exit  : 1F/0
  1614 ;;		Unchanged: 0/0
  1615 ;; Data sizes:     COMMON   BANK0   BANK1   BANK2
  1616 ;;      Params:         0       0       0       0
  1617 ;;      Locals:         0       0       0       0
  1618 ;;      Temps:          0       0       0       0
  1619 ;;      Totals:         0       0       0       0
  1620 ;;Total ram usage:        0 bytes
  1621 ;; Hardware stack levels used: 1
  1622 ;; Hardware stack levels required when called: 4
  1623 ;; This function calls:
  1624 ;;		_EUSART_SetErrorHandler
  1625 ;;		_EUSART_SetFramingErrorHandler
  1626 ;;		_EUSART_SetOverrunErrorHandler
  1627 ;; This function is called by:
  1628 ;;		_SYSTEM_Initialize
  1629 ;; This function uses a non-reentrant model
  1630 ;;
  1631                           
  1632     002C                     _EUSART_Initialize:	
  1633                           ;psect for function _EUSART_Initialize
  1634                           
  1635                           
  1636                           ;mcc_generated_files/eusart.c: 70:     BAUDCON = 0x18;
  1637                           
  1638                           ;incstack = 0
  1639                           ; Regs used in _EUSART_Initialize: [wreg+status,2+status,0+pclath+cstack]
  1640     002C  3018               	movlw	24
  1641     002D  0023               	movlb	3	; select bank3
  1642     002E  009F               	movwf	31	;volatile
  1643                           
  1644                           ;mcc_generated_files/eusart.c: 73:     RCSTA = 0x90;
  1645     002F  3090               	movlw	144
  1646     0030  009D               	movwf	29	;volatile
  1647                           
  1648                           ;mcc_generated_files/eusart.c: 76:     TXSTA = 0x34;
  1649     0031  3034               	movlw	52
  1650     0032  009E               	movwf	30	;volatile
  1651                           
  1652                           ;mcc_generated_files/eusart.c: 79:     SPBRGL = 0x06;
  1653     0033  3006               	movlw	6
  1654     0034  009B               	movwf	27	;volatile
  1655                           
  1656                           ;mcc_generated_files/eusart.c: 82:     SPBRGH = 0x00;
  1657     0035  019C               	clrf	28	;volatile
  1658                           
  1659                           ;mcc_generated_files/eusart.c: 85:     EUSART_SetFramingErrorHandler(EUSART_DefaultFrami
      +                          ngErrorHandler);
  1660     0036  3000               	movlw	0
  1661     0037  00FC               	movwf	EUSART_SetFramingErrorHandler@interruptHandler
  1662     0038  3000               	movlw	0
  1663     0039  00FD               	movwf	EUSART_SetFramingErrorHandler@interruptHandler+1
  1664     003A  20A5               	fcall	_EUSART_SetFramingErrorHandler
  1665                           
  1666                           ;mcc_generated_files/eusart.c: 86:     EUSART_SetOverrunErrorHandler(EUSART_DefaultOverr
      +                          unErrorHandler);
  1667     003B  3000               	movlw	0
  1668     003C  00FC               	movwf	EUSART_SetOverrunErrorHandler@interruptHandler
  1669     003D  3000               	movlw	0
  1670     003E  00FD               	movwf	EUSART_SetOverrunErrorHandler@interruptHandler+1
  1671     003F  20B0               	fcall	_EUSART_SetOverrunErrorHandler
  1672                           
  1673                           ;mcc_generated_files/eusart.c: 87:     EUSART_SetErrorHandler(EUSART_DefaultErrorHandler
      +                          );
  1674     0040  3000               	movlw	0
  1675     0041  00FC               	movwf	EUSART_SetErrorHandler@interruptHandler
  1676     0042  3000               	movlw	0
  1677     0043  00FD               	movwf	EUSART_SetErrorHandler@interruptHandler+1
  1678     0044  20B5               	fcall	_EUSART_SetErrorHandler
  1679                           
  1680                           ;mcc_generated_files/eusart.c: 89:     eusartRxLastError.status = 0;
  1681     0045  01F2               	clrf	_eusartRxLastError	;volatile
  1682     0046  0008               	return
  1683     0047                     __end_of_EUSART_Initialize:
  1684                           
  1685                           	psect	text8
  1686     00B0                     __ptext8:	
  1687 ;; *************** function _EUSART_SetOverrunErrorHandler *****************
  1688 ;; Defined at:
  1689 ;;		line 167 in file "mcc_generated_files/eusart.c"
  1690 ;; Parameters:    Size  Location     Type
  1691 ;;  interruptHan    2    0[COMMON] PTR FTN()void 
  1692 ;;		 -> EUSART_DefaultOverrunErrorHandler(1), 
  1693 ;; Auto vars:     Size  Location     Type
  1694 ;;		None
  1695 ;; Return value:  Size  Location     Type
  1696 ;;                  1    wreg      void 
  1697 ;; Registers used:
  1698 ;;		wreg
  1699 ;; Tracked objects:
  1700 ;;		On entry : B1F/0
  1701 ;;		On exit  : B1F/0
  1702 ;;		Unchanged: B00/0
  1703 ;; Data sizes:     COMMON   BANK0   BANK1   BANK2
  1704 ;;      Params:         2       0       0       0
  1705 ;;      Locals:         0       0       0       0
  1706 ;;      Temps:          0       0       0       0
  1707 ;;      Totals:         2       0       0       0
  1708 ;;Total ram usage:        2 bytes
  1709 ;; Hardware stack levels used: 1
  1710 ;; Hardware stack levels required when called: 3
  1711 ;; This function calls:
  1712 ;;		Nothing
  1713 ;; This function is called by:
  1714 ;;		_EUSART_Initialize
  1715 ;; This function uses a non-reentrant model
  1716 ;;
  1717                           
  1718     00B0                     _EUSART_SetOverrunErrorHandler:	
  1719                           ;psect for function _EUSART_SetOverrunErrorHandler
  1720                           
  1721                           
  1722                           ;mcc_generated_files/eusart.c: 168:     EUSART_OverrunErrorHandler = interruptHandler;
  1723                           
  1724                           ;incstack = 0
  1725                           ; Regs used in _EUSART_SetOverrunErrorHandler: [wreg]
  1726     00B0  087D               	movf	EUSART_SetOverrunErrorHandler@interruptHandler+1,w
  1727     00B1  00C0               	movwf	_EUSART_OverrunErrorHandler+1
  1728     00B2  087C               	movf	EUSART_SetOverrunErrorHandler@interruptHandler,w
  1729     00B3  00BF               	movwf	_EUSART_OverrunErrorHandler
  1730     00B4  0008               	return
  1731     00B5                     __end_of_EUSART_SetOverrunErrorHandler:
  1732                           
  1733                           	psect	text9
  1734     00A5                     __ptext9:	
  1735 ;; *************** function _EUSART_SetFramingErrorHandler *****************
  1736 ;; Defined at:
  1737 ;;		line 163 in file "mcc_generated_files/eusart.c"
  1738 ;; Parameters:    Size  Location     Type
  1739 ;;  interruptHan    2    0[COMMON] PTR FTN()void 
  1740 ;;		 -> EUSART_DefaultFramingErrorHandler(1), 
  1741 ;; Auto vars:     Size  Location     Type
  1742 ;;		None
  1743 ;; Return value:  Size  Location     Type
  1744 ;;                  1    wreg      void 
  1745 ;; Registers used:
  1746 ;;		wreg
  1747 ;; Tracked objects:
  1748 ;;		On entry : B1F/3
  1749 ;;		On exit  : B1F/0
  1750 ;;		Unchanged: B00/0
  1751 ;; Data sizes:     COMMON   BANK0   BANK1   BANK2
  1752 ;;      Params:         2       0       0       0
  1753 ;;      Locals:         0       0       0       0
  1754 ;;      Temps:          0       0       0       0
  1755 ;;      Totals:         2       0       0       0
  1756 ;;Total ram usage:        2 bytes
  1757 ;; Hardware stack levels used: 1
  1758 ;; Hardware stack levels required when called: 3
  1759 ;; This function calls:
  1760 ;;		Nothing
  1761 ;; This function is called by:
  1762 ;;		_EUSART_Initialize
  1763 ;; This function uses a non-reentrant model
  1764 ;;
  1765                           
  1766     00A5                     _EUSART_SetFramingErrorHandler:	
  1767                           ;psect for function _EUSART_SetFramingErrorHandler
  1768                           
  1769                           
  1770                           ;mcc_generated_files/eusart.c: 164:     EUSART_FramingErrorHandler = interruptHandler;
  1771                           
  1772                           ;incstack = 0
  1773                           ; Regs used in _EUSART_SetFramingErrorHandler: [wreg]
  1774     00A5  087D               	movf	EUSART_SetFramingErrorHandler@interruptHandler+1,w
  1775     00A6  0020               	movlb	0	; select bank0
  1776     00A7  00C2               	movwf	_EUSART_FramingErrorHandler+1
  1777     00A8  087C               	movf	EUSART_SetFramingErrorHandler@interruptHandler,w
  1778     00A9  00C1               	movwf	_EUSART_FramingErrorHandler
  1779     00AA  0008               	return
  1780     00AB                     __end_of_EUSART_SetFramingErrorHandler:
  1781                           
  1782                           	psect	text10
  1783     00B5                     __ptext10:	
  1784 ;; *************** function _EUSART_SetErrorHandler *****************
  1785 ;; Defined at:
  1786 ;;		line 171 in file "mcc_generated_files/eusart.c"
  1787 ;; Parameters:    Size  Location     Type
  1788 ;;  interruptHan    2    0[COMMON] PTR FTN()void 
  1789 ;;		 -> EUSART_DefaultErrorHandler(1), 
  1790 ;; Auto vars:     Size  Location     Type
  1791 ;;		None
  1792 ;; Return value:  Size  Location     Type
  1793 ;;                  1    wreg      void 
  1794 ;; Registers used:
  1795 ;;		wreg
  1796 ;; Tracked objects:
  1797 ;;		On entry : 1F/0
  1798 ;;		On exit  : 1F/0
  1799 ;;		Unchanged: 0/0
  1800 ;; Data sizes:     COMMON   BANK0   BANK1   BANK2
  1801 ;;      Params:         2       0       0       0
  1802 ;;      Locals:         0       0       0       0
  1803 ;;      Temps:          0       0       0       0
  1804 ;;      Totals:         2       0       0       0
  1805 ;;Total ram usage:        2 bytes
  1806 ;; Hardware stack levels used: 1
  1807 ;; Hardware stack levels required when called: 3
  1808 ;; This function calls:
  1809 ;;		Nothing
  1810 ;; This function is called by:
  1811 ;;		_EUSART_Initialize
  1812 ;; This function uses a non-reentrant model
  1813 ;;
  1814                           
  1815     00B5                     _EUSART_SetErrorHandler:	
  1816                           ;psect for function _EUSART_SetErrorHandler
  1817                           
  1818                           
  1819                           ;mcc_generated_files/eusart.c: 172:     EUSART_ErrorHandler = interruptHandler;
  1820                           
  1821                           ;incstack = 0
  1822                           ; Regs used in _EUSART_SetErrorHandler: [wreg]
  1823     00B5  087D               	movf	EUSART_SetErrorHandler@interruptHandler+1,w
  1824     00B6  00BE               	movwf	_EUSART_ErrorHandler+1
  1825     00B7  087C               	movf	EUSART_SetErrorHandler@interruptHandler,w
  1826     00B8  00BD               	movwf	_EUSART_ErrorHandler
  1827     00B9  0008               	return
  1828     00BA                     __end_of_EUSART_SetErrorHandler:
  1829                           
  1830                           	psect	intentry
  1831     0004                     __pintentry:	
  1832 ;; *************** function _INTERRUPT_InterruptManager *****************
  1833 ;; Defined at:
  1834 ;;		line 52 in file "mcc_generated_files/interrupt_manager.c"
  1835 ;; Parameters:    Size  Location     Type
  1836 ;;		None
  1837 ;; Auto vars:     Size  Location     Type
  1838 ;;		None
  1839 ;; Return value:  Size  Location     Type
  1840 ;;                  1    wreg      void 
  1841 ;; Registers used:
  1842 ;;		wreg, status,2, status,0, pclath, cstack
  1843 ;; Tracked objects:
  1844 ;;		On entry : 0/0
  1845 ;;		On exit  : 0/0
  1846 ;;		Unchanged: 0/0
  1847 ;; Data sizes:     COMMON   BANK0   BANK1   BANK2
  1848 ;;      Params:         0       0       0       0
  1849 ;;      Locals:         0       0       0       0
  1850 ;;      Temps:          0       0       0       0
  1851 ;;      Totals:         0       0       0       0
  1852 ;;Total ram usage:        0 bytes
  1853 ;; Hardware stack levels used: 1
  1854 ;; Hardware stack levels required when called: 2
  1855 ;; This function calls:
  1856 ;;		_TMR0_ISR
  1857 ;; This function is called by:
  1858 ;;		Interrupt level 1
  1859 ;; This function uses a non-reentrant model
  1860 ;;
  1861                           
  1862     0004                     _INTERRUPT_InterruptManager:
  1863                           
  1864                           ;incstack = 0
  1865     0004  147E               	bsf	126,0	;set compiler interrupt flag (level 1)
  1866                           
  1867                           ; Regs used in _INTERRUPT_InterruptManager: [wreg+status,2+status,0+pclath+cstack]
  1868     0005  3180               	pagesel	$
  1869                           
  1870                           ;mcc_generated_files/interrupt_manager.c: 55:     if(INTCONbits.TMR0IE == 1 && INTCONbit
      +                          s.TMR0IF == 1)
  1871     0006  1A8B               	btfsc	11,5	;volatile
  1872     0007  1D0B               	btfss	11,2	;volatile
  1873     0008  280A               	goto	i1l114
  1874                           
  1875                           ;mcc_generated_files/interrupt_manager.c: 56:     {;mcc_generated_files/interrupt_manage
      +                          r.c: 57:         TMR0_ISR();
  1876     0009  2084               	fcall	_TMR0_ISR
  1877     000A                     i1l114:	
  1878                           ;mcc_generated_files/interrupt_manager.c: 58:     }
  1879                           
  1880     000A  107E               	bcf	126,0	;clear compiler interrupt flag (level 1)
  1881     000B  0009               	retfie
  1882     000C                     __end_of_INTERRUPT_InterruptManager:
  1883                           
  1884                           	psect	text12
  1885     0084                     __ptext12:	
  1886 ;; *************** function _TMR0_ISR *****************
  1887 ;; Defined at:
  1888 ;;		line 108 in file "mcc_generated_files/tmr0.c"
  1889 ;; Parameters:    Size  Location     Type
  1890 ;;		None
  1891 ;; Auto vars:     Size  Location     Type
  1892 ;;		None
  1893 ;; Return value:  Size  Location     Type
  1894 ;;                  1    wreg      void 
  1895 ;; Registers used:
  1896 ;;		wreg, status,2, status,0, pclath, cstack
  1897 ;; Tracked objects:
  1898 ;;		On entry : 0/0
  1899 ;;		On exit  : 0/0
  1900 ;;		Unchanged: 0/0
  1901 ;; Data sizes:     COMMON   BANK0   BANK1   BANK2
  1902 ;;      Params:         0       0       0       0
  1903 ;;      Locals:         0       0       0       0
  1904 ;;      Temps:          0       0       0       0
  1905 ;;      Totals:         0       0       0       0
  1906 ;;Total ram usage:        0 bytes
  1907 ;; Hardware stack levels used: 1
  1908 ;; Hardware stack levels required when called: 1
  1909 ;; This function calls:
  1910 ;;		NULL
  1911 ;;		_TMR0_DefaultInterruptHandler
  1912 ;; This function is called by:
  1913 ;;		_INTERRUPT_InterruptManager
  1914 ;; This function uses a non-reentrant model
  1915 ;;
  1916                           
  1917     0084                     _TMR0_ISR:	
  1918                           ;psect for function _TMR0_ISR
  1919                           
  1920                           
  1921                           ;mcc_generated_files/tmr0.c: 112:     INTCONbits.TMR0IF = 0;
  1922                           
  1923                           ;incstack = 0
  1924                           ; Regs used in _TMR0_ISR: [wreg+status,2+status,0+pclath+cstack]
  1925     0084  110B               	bcf	11,2	;volatile
  1926                           
  1927                           ;mcc_generated_files/tmr0.c: 114:     TMR0 = timer0ReloadVal;
  1928     0085  0873               	movf	_timer0ReloadVal,w	;volatile
  1929     0086  0020               	movlb	0	; select bank0
  1930     0087  0095               	movwf	21	;volatile
  1931                           
  1932                           ;mcc_generated_files/tmr0.c: 116:     if(TMR0_InterruptHandler)
  1933     0088  087A               	movf	_TMR0_InterruptHandler,w
  1934     0089  047B               	iorwf	_TMR0_InterruptHandler+1,w
  1935     008A  1903               	btfsc	3,2
  1936     008B  0008               	return
  1937                           
  1938                           ;mcc_generated_files/tmr0.c: 117:     {;mcc_generated_files/tmr0.c: 118:         TMR0_In
      +                          terruptHandler();
  1939     008C  087B               	movf	_TMR0_InterruptHandler+1,w
  1940     008D  008A               	movwf	10
  1941     008E  087A               	movf	_TMR0_InterruptHandler,w
  1942     008F  000A               	callw
  1943     0090  3180               	pagesel	$
  1944     0091  0008               	return
  1945     0092                     __end_of_TMR0_ISR:
  1946                           
  1947                           	psect	text13
  1948     00C0                     __ptext13:	
  1949 ;; *************** function _TMR0_DefaultInterruptHandler *****************
  1950 ;; Defined at:
  1951 ;;		line 129 in file "mcc_generated_files/tmr0.c"
  1952 ;; Parameters:    Size  Location     Type
  1953 ;;		None
  1954 ;; Auto vars:     Size  Location     Type
  1955 ;;		None
  1956 ;; Return value:  Size  Location     Type
  1957 ;;                  1    wreg      void 
  1958 ;; Registers used:
  1959 ;;		None
  1960 ;; Tracked objects:
  1961 ;;		On entry : 1F/0
  1962 ;;		On exit  : 1F/0
  1963 ;;		Unchanged: 1F/0
  1964 ;; Data sizes:     COMMON   BANK0   BANK1   BANK2
  1965 ;;      Params:         0       0       0       0
  1966 ;;      Locals:         0       0       0       0
  1967 ;;      Temps:          0       0       0       0
  1968 ;;      Totals:         0       0       0       0
  1969 ;;Total ram usage:        0 bytes
  1970 ;; Hardware stack levels used: 1
  1971 ;; This function calls:
  1972 ;;		Nothing
  1973 ;; This function is called by:
  1974 ;;		_TMR0_Initialize
  1975 ;;		_TMR0_ISR
  1976 ;; This function uses a non-reentrant model
  1977 ;;
  1978                           
  1979     00C0                     _TMR0_DefaultInterruptHandler:	
  1980                           ;psect for function _TMR0_DefaultInterruptHandler
  1981                           
  1982                           
  1983                           ;incstack = 0
  1984                           ; Regs used in _TMR0_DefaultInterruptHandler: []
  1985     00C0  0008               	return
  1986     00C1                     __end_of_TMR0_DefaultInterruptHandler:
  1987     007E                     btemp	set	126	;btemp
  1988     007E                     int$flags	set	126
  1989     007E                     wtemp0	set	126
  1990                           
  1991                           	psect	config
  1992                           
  1993                           ;Config register CONFIG1 @ 0x8007
  1994                           ;	Oscillator Selection
  1995                           ;	FOSC = INTOSC, INTOSC oscillator: I/O function on CLKIN pin
  1996                           ;	Watchdog Timer Enable
  1997                           ;	WDTE = OFF, WDT disabled
  1998                           ;	Power-up Timer Enable
  1999                           ;	PWRTE = OFF, PWRT disabled
  2000                           ;	MCLR Pin Function Select
  2001                           ;	MCLRE = ON, MCLR/VPP pin function is MCLR
  2002                           ;	Flash Program Memory Code Protection
  2003                           ;	CP = OFF, Program memory code protection is disabled
  2004                           ;	Data Memory Code Protection
  2005                           ;	CPD = OFF, Data memory code protection is disabled
  2006                           ;	Brown-out Reset Enable
  2007                           ;	BOREN = ON, Brown-out Reset enabled
  2008                           ;	Clock Out Enable
  2009                           ;	CLKOUTEN = OFF, CLKOUT function is disabled. I/O or oscillator function on the CLKOUT 
      +                          pin
  2010                           ;	Internal/External Switchover
  2011                           ;	IESO = ON, Internal/External Switchover mode is enabled
  2012                           ;	Fail-Safe Clock Monitor Enable
  2013                           ;	FCMEN = ON, Fail-Safe Clock Monitor is enabled
  2014     8007                     	org	32775
  2015     8007  3FE4               	dw	16356
  2016                           
  2017                           ;Config register CONFIG2 @ 0x8008
  2018                           ;	Flash Memory Self-Write Protection
  2019                           ;	WRT = OFF, Write protection off
  2020                           ;	PLL Enable
  2021                           ;	PLLEN = OFF, 4x PLL disabled
  2022                           ;	Stack Overflow/Underflow Reset Enable
  2023                           ;	STVREN = ON, Stack Overflow or Underflow will cause a Reset
  2024                           ;	Brown-out Reset Voltage Selection
  2025                           ;	BORV = LO, Brown-out Reset Voltage (Vbor), low trip point selected.
  2026                           ;	In-Circuit Debugger Mode
  2027                           ;	DEBUG = 0x1, unprogrammed default
  2028                           ;	Low-Voltage Programming Enable
  2029                           ;	LVP = ON, Low-voltage programming enabled
  2030     8008                     	org	32776
  2031     8008  3EFF               	dw	16127

Data Sizes:
    Strings     0
    Constant    0
    Data        21
    BSS         18
    Persistent  40
    Stack       0

Auto Spaces:
    Space          Size  Autos    Used
    COMMON           14      2      14
    BANK0            80      0      35
    BANK1            80      0       0
    BANK2            64      0       0

Pointer List with Targets:

    EUSART_ErrorHandler	PTR FTN()void  size(2) Largest target is 1
		 -> EUSART_DefaultErrorHandler(), NULL(), 

    EUSART_FramingErrorHandler	PTR FTN()void  size(2) Largest target is 1
		 -> EUSART_DefaultFramingErrorHandler(), NULL(), 

    EUSART_OverrunErrorHandler	PTR FTN()void  size(2) Largest target is 1
		 -> EUSART_DefaultOverrunErrorHandler(), NULL(), 

    EUSART_SetErrorHandler@interruptHandler	PTR FTN()void  size(2) Largest target is 1
		 -> EUSART_DefaultErrorHandler(), 

    EUSART_SetFramingErrorHandler@interruptHandler	PTR FTN()void  size(2) Largest target is 1
		 -> EUSART_DefaultFramingErrorHandler(), 

    EUSART_SetOverrunErrorHandler@interruptHandler	PTR FTN()void  size(2) Largest target is 1
		 -> EUSART_DefaultOverrunErrorHandler(), 

    TMR0_InterruptHandler	PTR FTN()void  size(2) Largest target is 1
		 -> TMR0_DefaultInterruptHandler(), NULL(), 

    TMR0_SetInterruptHandler@InterruptHandler	PTR FTN()void  size(2) Largest target is 1
		 -> TMR0_DefaultInterruptHandler(), 


Critical Paths under _main in COMMON

    _TMR0_Initialize->_TMR0_SetInterruptHandler
    _EUSART_Initialize->_EUSART_SetErrorHandler
    _EUSART_Initialize->_EUSART_SetFramingErrorHandler
    _EUSART_Initialize->_EUSART_SetOverrunErrorHandler

Critical Paths under _INTERRUPT_InterruptManager in COMMON

    None.

Critical Paths under _main in BANK0

    None.

Critical Paths under _INTERRUPT_InterruptManager in BANK0

    None.

Critical Paths under _main in BANK1

    None.

Critical Paths under _INTERRUPT_InterruptManager in BANK1

    None.

Critical Paths under _main in BANK2

    None.

Critical Paths under _INTERRUPT_InterruptManager in BANK2

    None.

Call Graph Tables:

 ---------------------------------------------------------------------------------
 (Depth) Function   	        Calls       Base Space   Used Autos Params    Refs
 ---------------------------------------------------------------------------------
 (0) _main                                                 3     3      0     395
                  _SYSTEM_Initialize
 ---------------------------------------------------------------------------------
 (1) _SYSTEM_Initialize                                    0     0      0     392
                  _EUSART_Initialize
              _OSCILLATOR_Initialize
             _PIN_MANAGER_Initialize
                    _TMR0_Initialize
                     _WDT_Initialize
 ---------------------------------------------------------------------------------
 (2) _WDT_Initialize                                       0     0      0       0
 ---------------------------------------------------------------------------------
 (2) _TMR0_Initialize                                      0     0      0      98
           _TMR0_SetInterruptHandler
 ---------------------------------------------------------------------------------
 (3) _TMR0_SetInterruptHandler                             2     0      2      98
                                              0 COMMON     2     0      2
 ---------------------------------------------------------------------------------
 (2) _PIN_MANAGER_Initialize                               0     0      0       0
 ---------------------------------------------------------------------------------
 (2) _OSCILLATOR_Initialize                                0     0      0       0
 ---------------------------------------------------------------------------------
 (2) _EUSART_Initialize                                    0     0      0     294
             _EUSART_SetErrorHandler
      _EUSART_SetFramingErrorHandler
      _EUSART_SetOverrunErrorHandler
 ---------------------------------------------------------------------------------
 (3) _EUSART_SetOverrunErrorHandler                        2     0      2      98
                                              0 COMMON     2     0      2
 ---------------------------------------------------------------------------------
 (3) _EUSART_SetFramingErrorHandler                        2     0      2      98
                                              0 COMMON     2     0      2
 ---------------------------------------------------------------------------------
 (3) _EUSART_SetErrorHandler                               2     0      2      98
                                              0 COMMON     2     0      2
 ---------------------------------------------------------------------------------
 Estimated maximum stack depth 3
 ---------------------------------------------------------------------------------
 (Depth) Function   	        Calls       Base Space   Used Autos Params    Refs
 ---------------------------------------------------------------------------------
 (4) _INTERRUPT_InterruptManager                           0     0      0       0
                           _TMR0_ISR
 ---------------------------------------------------------------------------------
 (5) _TMR0_ISR                                             0     0      0       0
                                NULL *
       _TMR0_DefaultInterruptHandler *
 ---------------------------------------------------------------------------------
 (6) _TMR0_DefaultInterruptHandler                         0     0      0       0
 ---------------------------------------------------------------------------------
 (6) NULL(Fake)                                            0     0      0       0
 ---------------------------------------------------------------------------------
 Estimated maximum stack depth 6
 ---------------------------------------------------------------------------------

 Call Graph Graphs:

 _main (ROOT)
   _SYSTEM_Initialize
     _EUSART_Initialize
       _EUSART_SetErrorHandler
       _EUSART_SetFramingErrorHandler
       _EUSART_SetOverrunErrorHandler
     _OSCILLATOR_Initialize
     _PIN_MANAGER_Initialize
     _TMR0_Initialize
       _TMR0_SetInterruptHandler
     _WDT_Initialize

 _INTERRUPT_InterruptManager (ROOT)
   _TMR0_ISR
     NULL(Fake) *
     _TMR0_DefaultInterruptHandler *

 Address spaces:
Name               Size   Autos  Total    Cost      Usage
BIGRAM              E0      0       0       0        0.0%
EEDATA             100      0       0       0        0.0%
NULL                 0      0       0       0        0.0%
CODE                 0      0       0       0        0.0%
BITCOMMON            E      0       0       1        0.0%
BITSFR0              0      0       0       1        0.0%
SFR0                 0      0       0       1        0.0%
COMMON               E      2       E       2      100.0%
BITSFR1              0      0       0       2        0.0%
SFR1                 0      0       0       2        0.0%
BITSFR2              0      0       0       3        0.0%
SFR2                 0      0       0       3        0.0%
STACK                0      0       0       3        0.0%
BITSFR3              0      0       0       4        0.0%
SFR3                 0      0       0       4        0.0%
ABS                  0      0      31       4        0.0%
BITBANK0            50      0       0       5        0.0%
BITSFR4              0      0       0       5        0.0%
SFR4                 0      0       0       5        0.0%
BANK0               50      0      23       6       43.8%
BITSFR5              0      0       0       6        0.0%
SFR5                 0      0       0       6        0.0%
BITBANK1            50      0       0       7        0.0%
BITSFR6              0      0       0       7        0.0%
SFR6                 0      0       0       7        0.0%
BANK1               50      0       0       8        0.0%
BITSFR7              0      0       0       8        0.0%
SFR7                 0      0       0       8        0.0%
BITBANK2            40      0       0       9        0.0%
BITSFR8              0      0       0       9        0.0%
SFR8                 0      0       0       9        0.0%
BANK2               40      0       0      10        0.0%
BITSFR9              0      0       0      10        0.0%
SFR9                 0      0       0      10        0.0%
BITSFR10             0      0       0      11        0.0%
SFR10                0      0       0      11        0.0%
DATA                 0      0      31      11        0.0%
BITSFR11             0      0       0      12        0.0%
SFR11                0      0       0      12        0.0%
BITSFR12             0      0       0      13        0.0%
SFR12                0      0       0      13        0.0%
BITSFR13             0      0       0      14        0.0%
SFR13                0      0       0      14        0.0%
BITSFR14             0      0       0      15        0.0%
SFR14                0      0       0      15        0.0%
BITSFR15             0      0       0      16        0.0%
SFR15                0      0       0      16        0.0%
BITSFR16             0      0       0      17        0.0%
SFR16                0      0       0      17        0.0%
BITSFR17             0      0       0      18        0.0%
SFR17                0      0       0      18        0.0%
BITSFR18             0      0       0      19        0.0%
SFR18                0      0       0      19        0.0%
BITSFR19             0      0       0      20        0.0%
SFR19                0      0       0      20        0.0%
BITSFR20             0      0       0      21        0.0%
SFR20                0      0       0      21        0.0%
BITSFR21             0      0       0      22        0.0%
SFR21                0      0       0      22        0.0%
BITSFR22             0      0       0      23        0.0%
SFR22                0      0       0      23        0.0%
BITSFR23             0      0       0      24        0.0%
SFR23                0      0       0      24        0.0%
BITSFR24             0      0       0      25        0.0%
SFR24                0      0       0      25        0.0%
BITSFR25             0      0       0      26        0.0%
SFR25                0      0       0      26        0.0%
BITSFR26             0      0       0      27        0.0%
SFR26                0      0       0      27        0.0%
BITSFR27             0      0       0      28        0.0%
SFR27                0      0       0      28        0.0%
BITSFR28             0      0       0      29        0.0%
SFR28                0      0       0      29        0.0%
BITSFR29             0      0       0      30        0.0%
SFR29                0      0       0      30        0.0%
BITSFR30             0      0       0      31        0.0%
SFR30                0      0       0      31        0.0%
BITSFR31             0      0       0      32        0.0%
SFR31                0      0       0      32        0.0%


Microchip Technology PIC Macro Assembler V2.45 build 20230818022343 
Symbol Table                                                                                   Sun Feb 18 21:22:50 2024

                                   _AccessLine 0078                                _timer0ReloadVal 0073  
                                          l100 00BF                 ?_EUSART_SetFramingErrorHandler 007C  
                                         _LATA 010C                                           _LATB 010D  
                                         _TMR0 0015                                           _WPUA 020C  
                                         _WPUB 020D                                           _main 00BE  
                                         fsr0h 0005                                           fsr1h 0007  
                                         fsr0l 0004                                           fsr1l 0006  
                                         btemp 007E                                           start 000C  
                      __end_of_TMR0_Initialize 0084                 ??_TMR0_DefaultInterruptHandler 007C  
                __end_of_OSCILLATOR_Initialize 0099                                          ?_main 007C  
                                        i1l114 000A                                          _RCSTA 019D  
                                        _TRISA 008C                                          _TRISB 008D  
                                        _TXSTA 019E                      ?_TMR0_SetInterruptHandler 007C  
                               _character_line 0074                               __end_of_TMR0_ISR 0092  
                               _WDT_Initialize 00BA                                          pclath 000A  
                                        status 0003                                          wtemp0 007E  
                              __initialization 000D                                   __end_of_main 00C0  
                  ?_INTERRUPT_InterruptManager 007C                                         ??_main 007E  
                       __end_of_WDT_Initialize 00BE              _EUSART_DefaultFramingErrorHandler 0000  
                   _EUSART_OverrunErrorHandler 003F                                         _ANSELA 018C  
                                       _ANSELB 018D                                         _BORCON 0116  
                                       _OSCCON 0099                                         _SPBRGH 019C  
                                       _SPBRGL 019B                                         _WDTCON 0097  
                             ?_TMR0_Initialize 007C                                ?_WDT_Initialize 007C  
     TMR0_SetInterruptHandler@InterruptHandler 007C                              _SYSTEM_Initialize 009F  
                      __end_of__initialization 0029                             ?_SYSTEM_Initialize 007C  
                               __pcstackCOMMON 007C                                   __pidataBANK0 005E  
                          ??_SYSTEM_Initialize 007E                                      ?_TMR0_ISR 007C  
                               _OPTION_REGbits 0095                ??_EUSART_SetOverrunErrorHandler 007E  
                    __end_of_SYSTEM_Initialize 00A5                                     __pbssBANK0 0035  
                                   __pnvCOMMON 007A                                     __pmaintext 00BE  
             __end_of_TMR0_SetInterruptHandler 00B0                                     ??_TMR0_ISR 007C  
                                   __pintentry 0004                                        _BAUDCON 019F  
                                      _APFCON0 011D                                        _APFCON1 011E  
                                      _OSCTUNE 0098                       ??_EUSART_SetErrorHandler 007E  
                                      __ptext1 009F                                        __ptext2 00BA  
                                      __ptext3 0073                                        __ptext4 00AB  
                                      __ptext5 0047                                        __ptext6 0092  
                                      __ptext7 002C                                        __ptext8 00B0  
                                      __ptext9 00A5                          _OSCILLATOR_Initialize 0092  
                     ??_PIN_MANAGER_Initialize 007C                           end_of_initialization 0029  
        __end_of_EUSART_SetOverrunErrorHandler 00B5                  _EUSART_SetOverrunErrorHandler 00B0  
                                      init_ram 0099                                        initloop 009A  
                            _EUSART_Initialize 002C                             ?_EUSART_Initialize 007C  
                          ??_EUSART_Initialize 007E                               ??_WDT_Initialize 007C  
                     _TMR0_SetInterruptHandler 00AB                      __end_of_EUSART_Initialize 0047  
                   _EUSART_DefaultErrorHandler 0000                         ?_OSCILLATOR_Initialize 007C  
                          start_initialization 000D                 ?_EUSART_SetOverrunErrorHandler 007C  
                   _EUSART_FramingErrorHandler 0041                         _EUSART_SetErrorHandler 00B5  
                                  __pdataBANK0 0020                 Time_deconstruct@character_line 0079  
                                  __pbssCOMMON 0070                                      ___latbits 0000  
                        _TMR0_InterruptHandler 007A                                      __pnvBANK0 003D  
                                    _char_line 0075                         _PIN_MANAGER_Initialize 0047  
                 ??_INTERRUPT_InterruptManager 007C                              ??_TMR0_Initialize 007E  
       EUSART_SetErrorHandler@interruptHandler 007C                              _eusartRxLastError 0072  
                   ??_TMR0_SetInterruptHandler 007E                ??_EUSART_SetFramingErrorHandler 007E  
                                     _TMR0_ISR 0084              _EUSART_DefaultOverrunErrorHandler 0000  
                                  _display_num 0076                                       _TimeSlot 0077  
                      ??_OSCILLATOR_Initialize 007C                            _EUSART_ErrorHandler 003D  
                                 _NumberBlocks 0020                               _renderer_outputs 0035  
                                     __ptext10 00B5                                       __ptext12 0084  
                                     __ptext13 00C0           __end_of_TMR0_DefaultInterruptHandler 00C1  
                 _TMR0_DefaultInterruptHandler 00C0                        ?_EUSART_SetErrorHandler 007C  
EUSART_SetOverrunErrorHandler@interruptHandler 007C                                       int$flags 007E  
           __end_of_INTERRUPT_InterruptManager 000C                     _INTERRUPT_InterruptManager 0004  
        __end_of_EUSART_SetFramingErrorHandler 00AB                  _EUSART_SetFramingErrorHandler 00A5  
                                   _INTCONbits 000B                                       intlevel1 0000  
                      ?_PIN_MANAGER_Initialize 007C                 __end_of_EUSART_SetErrorHandler 00BA  
                ?_TMR0_DefaultInterruptHandler 007C  EUSART_SetFramingErrorHandler@interruptHandler 007C  
                                  _time_of_day 0070                                     _OPTION_REG 0095  
                              _TMR0_Initialize 0073                 __end_of_PIN_MANAGER_Initialize 005E  
                                  _tod_outputs 0039  
